---
triple:          'arm64-apple-darwin'
binary-path:     my_game
relocations:
  - { offsetInCU: 0x26, offset: 0x26, size: 0x8, addend: 0x0, symName: _main, symObjAddr: 0x0, symBinAddr: 0x100001338, symSize: 0x360 }
  - { offsetInCU: 0x1B9B9, offset: 0x1B9B9, size: 0x8, addend: 0x0, symName: _main, symObjAddr: 0x0, symBinAddr: 0x100001338, symSize: 0x360 }
  - { offsetInCU: 0x3B, offset: 0x1D3F5, size: 0x8, addend: 0x0, symName: _.str, symObjAddr: 0x128A0, symBinAddr: 0x100048C20, symSize: 0x0 }
  - { offsetInCU: 0x6B, offset: 0x1D425, size: 0x8, addend: 0x0, symName: _.str.1, symObjAddr: 0x128E0, symBinAddr: 0x100048C60, symSize: 0x0 }
  - { offsetInCU: 0x88, offset: 0x1D442, size: 0x8, addend: 0x0, symName: _.str.2, symObjAddr: 0x12900, symBinAddr: 0x100048C80, symSize: 0x0 }
  - { offsetInCU: 0xA5, offset: 0x1D45F, size: 0x8, addend: 0x0, symName: _.str.3, symObjAddr: 0x12940, symBinAddr: 0x100048CC0, symSize: 0x0 }
  - { offsetInCU: 0xC2, offset: 0x1D47C, size: 0x8, addend: 0x0, symName: _.str.4, symObjAddr: 0x129A0, symBinAddr: 0x100048D20, symSize: 0x0 }
  - { offsetInCU: 0xDF, offset: 0x1D499, size: 0x8, addend: 0x0, symName: _.str.5, symObjAddr: 0x129C0, symBinAddr: 0x100048D40, symSize: 0x0 }
  - { offsetInCU: 0xFC, offset: 0x1D4B6, size: 0x8, addend: 0x0, symName: _.str.6, symObjAddr: 0x129E0, symBinAddr: 0x100048D60, symSize: 0x0 }
  - { offsetInCU: 0xD6DB, offset: 0x2AA95, size: 0x8, addend: 0x0, symName: __ZNSt3__124__put_character_sequenceB7v160006IcNS_11char_traitsIcEEEERNS_13basic_ostreamIT_T0_EES7_PKS4_m, symObjAddr: 0x5D34, symBinAddr: 0x1000073E4, symSize: 0x74C }
  - { offsetInCU: 0x108DD, offset: 0x2DC97, size: 0x8, addend: 0x0, symName: __ZNSt3__1lsB7v160006INS_11char_traitsIcEEEERNS_13basic_ostreamIcT_EES6_PKc, symObjAddr: 0x1F28, symBinAddr: 0x1000035D8, symSize: 0x48 }
  - { offsetInCU: 0x10925, offset: 0x2DCDF, size: 0x8, addend: 0x0, symName: __ZNSt3__14endlB7v160006IcNS_11char_traitsIcEEEERNS_13basic_ostreamIT_T0_EES7_, symObjAddr: 0x284C, symBinAddr: 0x100003EFC, symSize: 0xD4 }
  - { offsetInCU: 0x10966, offset: 0x2DD20, size: 0x8, addend: 0x0, symName: __ZNSt3__1neB7v160006ERKNS_16__deque_iteratorIP9GameStatePS2_RS2_PS3_lLl512EEES8_, symObjAddr: 0x3740, symBinAddr: 0x100004DF0, symSize: 0x34 }
  - { offsetInCU: 0x109A5, offset: 0x2DD5F, size: 0x8, addend: 0x0, symName: __ZNSt3__1eqB7v160006ERKNS_16__deque_iteratorIP9GameStatePS2_RS2_PS3_lLl512EEES8_, symObjAddr: 0x3E20, symBinAddr: 0x1000054D0, symSize: 0xC0 }
  - { offsetInCU: 0x109E4, offset: 0x2DD9E, size: 0x8, addend: 0x0, symName: __ZNSt3__130__libcpp_is_constant_evaluatedB7v160006Ev, symObjAddr: 0x4048, symBinAddr: 0x1000056F8, symSize: 0xC }
  - { offsetInCU: 0x10A02, offset: 0x2DDBC, size: 0x8, addend: 0x0, symName: __ZNSt3__119__libcpp_deallocateB7v160006EPvmm, symObjAddr: 0x4054, symBinAddr: 0x100005704, symSize: 0x30 }
  - { offsetInCU: 0x10A4E, offset: 0x2DE08, size: 0x8, addend: 0x0, symName: __ZNSt3__127__do_deallocate_handle_sizeB7v160006IJEEEvPvmDpT_, symObjAddr: 0x4084, symBinAddr: 0x100005734, symSize: 0x28 }
  - { offsetInCU: 0x10A90, offset: 0x2DE4A, size: 0x8, addend: 0x0, symName: __ZNSt3__124__libcpp_operator_deleteB7v160006IJPvEEEvDpT_, symObjAddr: 0x40AC, symBinAddr: 0x10000575C, symSize: 0x24 }
  - { offsetInCU: 0x10AC7, offset: 0x2DE81, size: 0x8, addend: 0x0, symName: __ZNSt3__112__to_addressB7v160006IPP9GameStateEEPT_S5_, symObjAddr: 0x44EC, symBinAddr: 0x100005B9C, symSize: 0x14 }
  - { offsetInCU: 0x10AFE, offset: 0x2DEB8, size: 0x8, addend: 0x0, symName: __ZNSt3__118__debug_db_erase_cB7v160006INS_12basic_stringIjNS_11char_traitsIjEENS_9allocatorIjEEEEEEvPT_, symObjAddr: 0x4A44, symBinAddr: 0x1000060F4, symSize: 0x10 }
  - { offsetInCU: 0x10B31, offset: 0x2DEEB, size: 0x8, addend: 0x0, symName: __ZNSt3__112__to_addressB7v160006IP9GameStateEEPT_S4_, symObjAddr: 0x5A24, symBinAddr: 0x1000070D4, symSize: 0x14 }
  - { offsetInCU: 0x10B68, offset: 0x2DF22, size: 0x8, addend: 0x0, symName: __ZNSt3__116__pad_and_outputB7v160006IcNS_11char_traitsIcEEEENS_19ostreambuf_iteratorIT_T0_EES6_PKS4_S8_S8_RNS_8ios_baseES4_, symObjAddr: 0x655C, symBinAddr: 0x100007C0C, symSize: 0x774 }
  - { offsetInCU: 0x10C50, offset: 0x2E00A, size: 0x8, addend: 0x0, symName: __ZNSt3__119__debug_db_insert_cB7v160006INS_12basic_stringIcNS_11char_traitsIcEENS_9allocatorIcEEEEEEvPT_, symObjAddr: 0x7450, symBinAddr: 0x100008B00, symSize: 0x10 }
  - { offsetInCU: 0x10C83, offset: 0x2E03D, size: 0x8, addend: 0x0, symName: __ZNSt3__112__to_addressB7v160006IKcEEPT_S3_, symObjAddr: 0x751C, symBinAddr: 0x100008BCC, symSize: 0x14 }
  - { offsetInCU: 0x10CED, offset: 0x2E0A7, size: 0x8, addend: 0x0, symName: __ZNSt3__19use_facetB7v160006INS_5ctypeIcEEEERKT_RKNS_6localeE, symObjAddr: 0x7BD4, symBinAddr: 0x100009284, symSize: 0x2C }
  - { offsetInCU: 0x111BD, offset: 0x2E577, size: 0x8, addend: 0x0, symName: __ZNSt3__118__constexpr_strlenB7v160006EPKc, symObjAddr: 0x7D58, symBinAddr: 0x100009408, symSize: 0x24 }
  - { offsetInCU: 0x111EB, offset: 0x2E5A5, size: 0x8, addend: 0x0, symName: __ZNSt3__13maxB7v160006ImEERKT_S3_S3_, symObjAddr: 0xAB00, symBinAddr: 0x10000C1B0, symSize: 0x2C }
  - { offsetInCU: 0x116BA, offset: 0x2EA74, size: 0x8, addend: 0x0, symName: __ZNSt3__14swapB7v160006IPPP9GameStateEEvRT_S6_, symObjAddr: 0xC1D0, symBinAddr: 0x10000D880, symSize: 0x134 }
  - { offsetInCU: 0x1170E, offset: 0x2EAC8, size: 0x8, addend: 0x0, symName: __ZNSt3__14moveB7v160006IPPP9GameStateS4_EET0_T_S6_S5_, symObjAddr: 0xC3AC, symBinAddr: 0x10000DA5C, symSize: 0x254 }
  - { offsetInCU: 0x1178E, offset: 0x2EB48, size: 0x8, addend: 0x0, symName: __ZNSt3__16__moveB7v160006INS_17_ClassicAlgPolicyEPPP9GameStateS5_S5_EENS_4pairIT0_T2_EES7_T1_S8_, symObjAddr: 0xCC7C, symBinAddr: 0x10000E32C, symSize: 0x22C }
  - { offsetInCU: 0x11801, offset: 0x2EBBB, size: 0x8, addend: 0x0, symName: __ZNSt3__123__dispatch_copy_or_moveB7v160006INS_17_ClassicAlgPolicyENS_11__move_loopIS1_EENS_14__move_trivialEPPP9GameStateS8_S8_EENS_4pairIT2_T4_EESA_T3_SB_, symObjAddr: 0xCEA8, symBinAddr: 0x10000E558, symSize: 0x23C }
  - { offsetInCU: 0x11886, offset: 0x2EC40, size: 0x8, addend: 0x0, symName: __ZNSt3__121__unwrap_and_dispatchB7v160006INS_10__overloadINS_11__move_loopINS_17_ClassicAlgPolicyEEENS_14__move_trivialEEEPPP9GameStateSA_SA_Li0EEENS_4pairIT0_T2_EESC_T1_SD_, symObjAddr: 0xD0E4, symBinAddr: 0x10000E794, symSize: 0x5A4 }
  - { offsetInCU: 0x11924, offset: 0x2ECDE, size: 0x8, addend: 0x0, symName: __ZNSt3__114__unwrap_rangeB7v160006IPPP9GameStateS4_EENS_4pairIT0_S6_EET_S8_, symObjAddr: 0xD688, symBinAddr: 0x10000ED38, symSize: 0x350 }
  - { offsetInCU: 0x11A69, offset: 0x2EE23, size: 0x8, addend: 0x0, symName: __ZNSt3__113__unwrap_iterB7v160006IPPP9GameStateNS_18__unwrap_iter_implIS4_Lb1EEELi0EEEDTclsrT0_8__unwrapclsr3stdE7declvalIT_EEEES8_, symObjAddr: 0xDC08, symBinAddr: 0x10000F2B8, symSize: 0x24 }
  - { offsetInCU: 0x11AB0, offset: 0x2EE6A, size: 0x8, addend: 0x0, symName: __ZNSt3__19make_pairB7v160006IPPP9GameStateS4_EENS_4pairINS_18__unwrap_ref_decayIT_E4typeENS6_IT0_E4typeEEEOS7_OSA_, symObjAddr: 0xDC2C, symBinAddr: 0x10000F2DC, symSize: 0x20C }
  - { offsetInCU: 0x11B03, offset: 0x2EEBD, size: 0x8, addend: 0x0, symName: __ZNSt3__114__rewrap_rangeB7v160006IPPP9GameStateS4_EET_S5_T0_, symObjAddr: 0xDE38, symBinAddr: 0x10000F4E8, symSize: 0x2C }
  - { offsetInCU: 0x11B52, offset: 0x2EF0C, size: 0x8, addend: 0x0, symName: __ZNSt3__113__rewrap_iterB7v160006IPPP9GameStateS4_NS_18__unwrap_iter_implIS4_Lb1EEEEET_S7_T0_, symObjAddr: 0xDE64, symBinAddr: 0x10000F514, symSize: 0x5C }
  - { offsetInCU: 0x11BAA, offset: 0x2EF64, size: 0x8, addend: 0x0, symName: __ZNSt3__119__copy_trivial_implB7v160006IPP9GameStateS3_EENS_4pairIPT_PT0_EES6_S6_S8_, symObjAddr: 0xDEC0, symBinAddr: 0x10000F570, symSize: 0x3B8 }
  - { offsetInCU: 0x11C1D, offset: 0x2EFD7, size: 0x8, addend: 0x0, symName: __ZNSt3__19make_pairB7v160006IRPPP9GameStateS4_EENS_4pairINS_18__unwrap_ref_decayIT_E4typeENS7_IT0_E4typeEEEOS8_OSB_, symObjAddr: 0xE278, symBinAddr: 0x10000F928, symSize: 0x20C }
  - { offsetInCU: 0x11CC3, offset: 0x2F07D, size: 0x8, addend: 0x0, symName: __ZNSt3__18distanceB7v160006INS_13move_iteratorIPPP9GameStateEEEENS_15iterator_traitsIT_E15difference_typeES8_S8_, symObjAddr: 0xE66C, symBinAddr: 0x10000FD1C, symSize: 0x350 }
  - { offsetInCU: 0x11D11, offset: 0x2F0CB, size: 0x8, addend: 0x0, symName: __ZNSt3__110__distanceB7v160006INS_13move_iteratorIPPP9GameStateEEEENS_15iterator_traitsIT_E15difference_typeES8_S8_NS_26random_access_iterator_tagE, symObjAddr: 0xEB48, symBinAddr: 0x1000101F8, symSize: 0x274 }
  - { offsetInCU: 0x11D6B, offset: 0x2F125, size: 0x8, addend: 0x0, symName: __ZNSt3__1miB7v160006IPPP9GameStateS4_EENS_13move_iteratorIT_E15difference_typeERKS7_RKNS5_IT0_EE, symObjAddr: 0xEDBC, symBinAddr: 0x10001046C, symSize: 0x48 }
  - { offsetInCU: 0x11DBC, offset: 0x2F176, size: 0x8, addend: 0x0, symName: __ZNSt3__117__libcpp_allocateB7v160006Emm, symObjAddr: 0xF40C, symBinAddr: 0x100010ABC, symSize: 0x28 }
  - { offsetInCU: 0x11DFB, offset: 0x2F1B5, size: 0x8, addend: 0x0, symName: __ZNSt3__121__libcpp_operator_newB7v160006IJmEEEPvDpT_, symObjAddr: 0xF448, symBinAddr: 0x100010AF8, symSize: 0x24 }
  - { offsetInCU: 0x11E35, offset: 0x2F1EF, size: 0x8, addend: 0x0, symName: __ZNSt3__113move_backwardB7v160006IPPP9GameStateS4_EET0_T_S6_S5_, symObjAddr: 0xF46C, symBinAddr: 0x100010B1C, symSize: 0x254 }
  - { offsetInCU: 0x11E96, offset: 0x2F250, size: 0x8, addend: 0x0, symName: __ZNSt3__115__move_backwardB7v160006INS_17_ClassicAlgPolicyEPPP9GameStateS5_S5_EENS_4pairIT0_T2_EES7_T1_S8_, symObjAddr: 0xF6C0, symBinAddr: 0x100010D70, symSize: 0x22C }
  - { offsetInCU: 0x11F09, offset: 0x2F2C3, size: 0x8, addend: 0x0, symName: __ZNSt3__123__dispatch_copy_or_moveB7v160006INS_17_ClassicAlgPolicyENS_20__move_backward_loopIS1_EENS_23__move_backward_trivialEPPP9GameStateS8_S8_EENS_4pairIT2_T4_EESA_T3_SB_, symObjAddr: 0xF8EC, symBinAddr: 0x100010F9C, symSize: 0x23C }
  - { offsetInCU: 0x11F8E, offset: 0x2F348, size: 0x8, addend: 0x0, symName: __ZNSt3__121__unwrap_and_dispatchB7v160006INS_10__overloadINS_20__move_backward_loopINS_17_ClassicAlgPolicyEEENS_23__move_backward_trivialEEEPPP9GameStateSA_SA_Li0EEENS_4pairIT0_T2_EESC_T1_SD_, symObjAddr: 0xFB28, symBinAddr: 0x1000111D8, symSize: 0x5A4 }
  - { offsetInCU: 0x12073, offset: 0x2F42D, size: 0x8, addend: 0x0, symName: __ZNSt3__128__copy_backward_trivial_implB7v160006IPP9GameStateS3_EENS_4pairIPT_PT0_EES6_S6_S8_, symObjAddr: 0x102FC, symBinAddr: 0x1000119AC, symSize: 0x3E0 }
  - { offsetInCU: 0x120E9, offset: 0x2F4A3, size: 0x8, addend: 0x0, symName: __ZNSt3__19make_pairB7v160006IRPPP9GameStateS5_EENS_4pairINS_18__unwrap_ref_decayIT_E4typeENS7_IT0_E4typeEEEOS8_OSB_, symObjAddr: 0x106DC, symBinAddr: 0x100011D8C, symSize: 0x20C }
  - { offsetInCU: 0x1213C, offset: 0x2F4F6, size: 0x8, addend: 0x0, symName: __ZNSt3__13maxB7v160006ImNS_6__lessImmEEEERKT_S5_S5_T0_, symObjAddr: 0x108E8, symBinAddr: 0x100011F98, symSize: 0x1E8 }
  - { offsetInCU: 0x121DB, offset: 0x2F595, size: 0x8, addend: 0x0, symName: __ZNSt3__119__allocate_at_leastB7v160006INS_9allocatorIPP9GameStateEEEENS_19__allocation_resultINS_16allocator_traitsIT_E7pointerEEERS8_m, symObjAddr: 0x110E8, symBinAddr: 0x100012798, symSize: 0x28C }
  - { offsetInCU: 0x12336, offset: 0x2F6F0, size: 0x8, addend: 0x0, symName: __ZSt28__throw_bad_array_new_lengthB7v160006v, symObjAddr: 0xF3D4, symBinAddr: 0x100010A84, symSize: 0x38 }
  - { offsetInCU: 0x158B2, offset: 0x32C6C, size: 0x8, addend: 0x0, symName: __ZN4GameC2Ev, symObjAddr: 0x0, symBinAddr: 0x1000016BC, symSize: 0x1B8 }
  - { offsetInCU: 0x158DE, offset: 0x32C98, size: 0x8, addend: 0x0, symName: __ZNSt3__15stackIP9GameStateNS_5dequeIS2_NS_9allocatorIS2_EEEEEC1B7v160006Ev, symObjAddr: 0x1B8, symBinAddr: 0x100001874, symSize: 0x2C }
  - { offsetInCU: 0x15908, offset: 0x32CC2, size: 0x8, addend: 0x0, symName: __ZN4Game10initWindowEv, symObjAddr: 0x1E4, symBinAddr: 0x1000018A0, symSize: 0x5EC }
  - { offsetInCU: 0x15931, offset: 0x32CEB, size: 0x8, addend: 0x0, symName: __ZN4Game10initStatesEv, symObjAddr: 0x7D0, symBinAddr: 0x100001E8C, symSize: 0x528 }
  - { offsetInCU: 0x1595A, offset: 0x32D14, size: 0x8, addend: 0x0, symName: __ZN4Game3runEv, symObjAddr: 0xCF8, symBinAddr: 0x1000023B4, symSize: 0x430 }
  - { offsetInCU: 0x159A4, offset: 0x32D5E, size: 0x8, addend: 0x0, symName: __ZN4Game6updateEv, symObjAddr: 0x1128, symBinAddr: 0x1000027E4, symSize: 0x5C8 }
  - { offsetInCU: 0x159CC, offset: 0x32D86, size: 0x8, addend: 0x0, symName: __ZN4Game6renderEv, symObjAddr: 0x16F0, symBinAddr: 0x100002DAC, symSize: 0x3C8 }
  - { offsetInCU: 0x159F5, offset: 0x32DAF, size: 0x8, addend: 0x0, symName: __ZNSt3__15stackIP9GameStateNS_5dequeIS2_NS_9allocatorIS2_EEEEED1Ev, symObjAddr: 0x1AB8, symBinAddr: 0x100003174, symSize: 0x2C }
  - { offsetInCU: 0x15A21, offset: 0x32DDB, size: 0x8, addend: 0x0, symName: __ZN4GameC1Ev, symObjAddr: 0x1AF0, symBinAddr: 0x1000031A0, symSize: 0x2C }
  - { offsetInCU: 0x15A4D, offset: 0x32E07, size: 0x8, addend: 0x0, symName: __ZN4GameD2Ev, symObjAddr: 0x1B1C, symBinAddr: 0x1000031CC, symSize: 0x2E8 }
  - { offsetInCU: 0x15A79, offset: 0x32E33, size: 0x8, addend: 0x0, symName: __ZNKSt3__15stackIP9GameStateNS_5dequeIS2_NS_9allocatorIS2_EEEEE5emptyB7v160006Ev, symObjAddr: 0x1E04, symBinAddr: 0x1000034B4, symSize: 0x28 }
  - { offsetInCU: 0x15A9F, offset: 0x32E59, size: 0x8, addend: 0x0, symName: __ZNSt3__15stackIP9GameStateNS_5dequeIS2_NS_9allocatorIS2_EEEEE3topB7v160006Ev, symObjAddr: 0x1E2C, symBinAddr: 0x1000034DC, symSize: 0x24 }
  - { offsetInCU: 0x15AC5, offset: 0x32E7F, size: 0x8, addend: 0x0, symName: __ZNSt3__15stackIP9GameStateNS_5dequeIS2_NS_9allocatorIS2_EEEEE3popB7v160006Ev, symObjAddr: 0x1E50, symBinAddr: 0x100003500, symSize: 0x24 }
  - { offsetInCU: 0x15AEB, offset: 0x32EA5, size: 0x8, addend: 0x0, symName: __ZN4GameD1Ev, symObjAddr: 0x1E74, symBinAddr: 0x100003524, symSize: 0x2C }
  - { offsetInCU: 0x15B17, offset: 0x32ED1, size: 0x8, addend: 0x0, symName: __ZN4GameD0Ev, symObjAddr: 0x1EA0, symBinAddr: 0x100003550, symSize: 0x58 }
  - { offsetInCU: 0x15B43, offset: 0x32EFD, size: 0x8, addend: 0x0, symName: __ZN4Game14endApplicationEv, symObjAddr: 0x1EF8, symBinAddr: 0x1000035A8, symSize: 0x30 }
  - { offsetInCU: 0x15B6B, offset: 0x32F25, size: 0x8, addend: 0x0, symName: __ZN2sf15ContextSettingsC1Ejjjjjjb, symObjAddr: 0x1F70, symBinAddr: 0x100003620, symSize: 0x70 }
  - { offsetInCU: 0x15BFE, offset: 0x32FB8, size: 0x8, addend: 0x0, symName: __ZN2sf6StringD1Ev, symObjAddr: 0x1FE0, symBinAddr: 0x100003690, symSize: 0x2C }
  - { offsetInCU: 0x15C2A, offset: 0x32FE4, size: 0x8, addend: 0x0, symName: __ZN4Game13initVariablesEv, symObjAddr: 0x200C, symBinAddr: 0x1000036BC, symSize: 0x10 }
  - { offsetInCU: 0x15C52, offset: 0x3300C, size: 0x8, addend: 0x0, symName: __ZNSt3__15stackIP9GameStateNS_5dequeIS2_NS_9allocatorIS2_EEEEE4pushB7v160006ERKS2_, symObjAddr: 0x201C, symBinAddr: 0x1000036CC, symSize: 0x2C }
  - { offsetInCU: 0x15C87, offset: 0x33041, size: 0x8, addend: 0x0, symName: __ZN4Game8updateDtEv, symObjAddr: 0x2048, symBinAddr: 0x1000036F8, symSize: 0x288 }
  - { offsetInCU: 0x15CB0, offset: 0x3306A, size: 0x8, addend: 0x0, symName: __ZN4Game9add_sceneEP9GameState, symObjAddr: 0x22D0, symBinAddr: 0x100003980, symSize: 0x1F4 }
  - { offsetInCU: 0x15CEC, offset: 0x330A6, size: 0x8, addend: 0x0, symName: __ZN4Game9updateGUIEv, symObjAddr: 0x24C4, symBinAddr: 0x100003B74, symSize: 0x328 }
  - { offsetInCU: 0x15D1A, offset: 0x330D4, size: 0x8, addend: 0x0, symName: __ZNSt3__112basic_stringIcNS_11char_traitsIcEENS_9allocatorIcEEEC1B7v160006IDnEEPKc, symObjAddr: 0x27EC, symBinAddr: 0x100003E9C, symSize: 0x34 }
  - { offsetInCU: 0x15D59, offset: 0x33113, size: 0x8, addend: 0x0, symName: __ZNSt3__113basic_ostreamIcNS_11char_traitsIcEEElsB7v160006EPFRS3_S4_E, symObjAddr: 0x2820, symBinAddr: 0x100003ED0, symSize: 0x2C }
  - { offsetInCU: 0x15D8E, offset: 0x33148, size: 0x8, addend: 0x0, symName: __ZNKSt3__15stackIP9GameStateNS_5dequeIS2_NS_9allocatorIS2_EEEEE4sizeB7v160006Ev, symObjAddr: 0x2920, symBinAddr: 0x100003FD0, symSize: 0x24 }
  - { offsetInCU: 0x15DB4, offset: 0x3316E, size: 0x8, addend: 0x0, symName: __ZNSt3__15stackIP9GameStateNS_5dequeIS2_NS_9allocatorIS2_EEEEED2Ev, symObjAddr: 0x2944, symBinAddr: 0x100003FF4, symSize: 0x2C }
  - { offsetInCU: 0x15DE0, offset: 0x3319A, size: 0x8, addend: 0x0, symName: __ZNSt3__15dequeIP9GameStateNS_9allocatorIS2_EEED1B7v160006Ev, symObjAddr: 0x2970, symBinAddr: 0x100004020, symSize: 0x2C }
  - { offsetInCU: 0x15E0A, offset: 0x331C4, size: 0x8, addend: 0x0, symName: __ZNSt3__15dequeIP9GameStateNS_9allocatorIS2_EEED2B7v160006Ev, symObjAddr: 0x299C, symBinAddr: 0x10000404C, symSize: 0xE8 }
  - { offsetInCU: 0x15E63, offset: 0x3321D, size: 0x8, addend: 0x0, symName: __ZNSt3__15dequeIP9GameStateNS_9allocatorIS2_EEE5clearEv, symObjAddr: 0x2A84, symBinAddr: 0x100004134, symSize: 0x514 }
  - { offsetInCU: 0x15ED4, offset: 0x3328E, size: 0x8, addend: 0x0, symName: __ZNSt3__114__split_bufferIPP9GameStateNS_9allocatorIS3_EEE5beginB7v160006Ev, symObjAddr: 0x2F98, symBinAddr: 0x100004648, symSize: 0x64 }
  - { offsetInCU: 0x15EFA, offset: 0x332B4, size: 0x8, addend: 0x0, symName: __ZNSt3__114__split_bufferIPP9GameStateNS_9allocatorIS3_EEE3endB7v160006Ev, symObjAddr: 0x2FFC, symBinAddr: 0x1000046AC, symSize: 0x64 }
  - { offsetInCU: 0x15F20, offset: 0x332DA, size: 0x8, addend: 0x0, symName: __ZNSt3__116allocator_traitsINS_9allocatorIP9GameStateEEE10deallocateB7v160006ERS4_PS3_m, symObjAddr: 0x3060, symBinAddr: 0x100004710, symSize: 0x34 }
  - { offsetInCU: 0x15F65, offset: 0x3331F, size: 0x8, addend: 0x0, symName: __ZNSt3__15dequeIP9GameStateNS_9allocatorIS2_EEE7__allocB7v160006Ev, symObjAddr: 0x3094, symBinAddr: 0x100004744, symSize: 0x28 }
  - { offsetInCU: 0x15F8B, offset: 0x33345, size: 0x8, addend: 0x0, symName: __ZNSt3__114__split_bufferIPP9GameStateNS_9allocatorIS3_EEED1Ev, symObjAddr: 0x30BC, symBinAddr: 0x10000476C, symSize: 0x2C }
  - { offsetInCU: 0x15FB7, offset: 0x33371, size: 0x8, addend: 0x0, symName: __ZNSt3__15dequeIP9GameStateNS_9allocatorIS2_EEE5beginB7v160006Ev, symObjAddr: 0x30E8, symBinAddr: 0x100004798, symSize: 0x358 }
  - { offsetInCU: 0x15FEF, offset: 0x333A9, size: 0x8, addend: 0x0, symName: __ZNSt3__15dequeIP9GameStateNS_9allocatorIS2_EEE3endB7v160006Ev, symObjAddr: 0x3440, symBinAddr: 0x100004AF0, symSize: 0x300 }
  - { offsetInCU: 0x16038, offset: 0x333F2, size: 0x8, addend: 0x0, symName: __ZNSt3__116allocator_traitsINS_9allocatorIP9GameStateEEE7destroyB7v160006IS3_vEEvRS4_PT_, symObjAddr: 0x3774, symBinAddr: 0x100004E24, symSize: 0x2C }
  - { offsetInCU: 0x16077, offset: 0x33431, size: 0x8, addend: 0x0, symName: __ZNKSt3__116__deque_iteratorIP9GameStatePS2_RS2_PS3_lLl512EEdeB7v160006Ev, symObjAddr: 0x37A0, symBinAddr: 0x100004E50, symSize: 0x64 }
  - { offsetInCU: 0x1609D, offset: 0x33457, size: 0x8, addend: 0x0, symName: __ZNSt3__116__deque_iteratorIP9GameStatePS2_RS2_PS3_lLl512EEppB7v160006Ev, symObjAddr: 0x3804, symBinAddr: 0x100004EB4, symSize: 0x1F8 }
  - { offsetInCU: 0x160C3, offset: 0x3347D, size: 0x8, addend: 0x0, symName: __ZNSt3__15dequeIP9GameStateNS_9allocatorIS2_EEE6__sizeB7v160006Ev, symObjAddr: 0x39FC, symBinAddr: 0x1000050AC, symSize: 0x28 }
  - { offsetInCU: 0x160E9, offset: 0x334A3, size: 0x8, addend: 0x0, symName: __ZNKSt3__114__split_bufferIPP9GameStateNS_9allocatorIS3_EEE4sizeB7v160006Ev, symObjAddr: 0x3A24, symBinAddr: 0x1000050D4, symSize: 0xB4 }
  - { offsetInCU: 0x1610F, offset: 0x334C9, size: 0x8, addend: 0x0, symName: __ZNSt3__114__split_bufferIPP9GameStateNS_9allocatorIS3_EEE5frontB7v160006Ev, symObjAddr: 0x3AD8, symBinAddr: 0x100005188, symSize: 0x64 }
  - { offsetInCU: 0x16135, offset: 0x334EF, size: 0x8, addend: 0x0, symName: __ZNSt3__114__split_bufferIPP9GameStateNS_9allocatorIS3_EEE9pop_frontB7v160006Ev, symObjAddr: 0x3B3C, symBinAddr: 0x1000051EC, symSize: 0x6C }
  - { offsetInCU: 0x1615B, offset: 0x33515, size: 0x8, addend: 0x0, symName: __ZNKSt3__114__split_bufferIPP9GameStateNS_9allocatorIS3_EEE5emptyB7v160006Ev, symObjAddr: 0x3BA8, symBinAddr: 0x100005258, symSize: 0xB4 }
  - { offsetInCU: 0x16181, offset: 0x3353B, size: 0x8, addend: 0x0, symName: __ZNSt3__116__deque_iteratorIP9GameStatePS2_RS2_PS3_lLl512EEC1B7v160006ES5_S3_, symObjAddr: 0x3C5C, symBinAddr: 0x10000530C, symSize: 0x3C }
  - { offsetInCU: 0x161CB, offset: 0x33585, size: 0x8, addend: 0x0, symName: __ZNSt3__116__deque_iteratorIP9GameStatePS2_RS2_PS3_lLl512EEC2B7v160006ES5_S3_, symObjAddr: 0x3C98, symBinAddr: 0x100005348, symSize: 0xBC }
  - { offsetInCU: 0x16215, offset: 0x335CF, size: 0x8, addend: 0x0, symName: __ZNKSt3__15dequeIP9GameStateNS_9allocatorIS2_EEE4sizeB7v160006Ev, symObjAddr: 0x3D54, symBinAddr: 0x100005404, symSize: 0x6C }
  - { offsetInCU: 0x1623B, offset: 0x335F5, size: 0x8, addend: 0x0, symName: __ZNKSt3__15dequeIP9GameStateNS_9allocatorIS2_EEE6__sizeB7v160006Ev, symObjAddr: 0x3DC0, symBinAddr: 0x100005470, symSize: 0x28 }
  - { offsetInCU: 0x16261, offset: 0x3361B, size: 0x8, addend: 0x0, symName: __ZNKSt3__117__compressed_pairImNS_9allocatorIP9GameStateEEE5firstB7v160006Ev, symObjAddr: 0x3DE8, symBinAddr: 0x100005498, symSize: 0x24 }
  - { offsetInCU: 0x16287, offset: 0x33641, size: 0x8, addend: 0x0, symName: __ZNKSt3__122__compressed_pair_elemImLi0ELb0EE5__getB7v160006Ev, symObjAddr: 0x3E0C, symBinAddr: 0x1000054BC, symSize: 0x14 }
  - { offsetInCU: 0x162AD, offset: 0x33667, size: 0x8, addend: 0x0, symName: __ZNSt3__19allocatorIP9GameStateE7destroyB7v160006EPS2_, symObjAddr: 0x3EE0, symBinAddr: 0x100005590, symSize: 0x14 }
  - { offsetInCU: 0x162E2, offset: 0x3369C, size: 0x8, addend: 0x0, symName: __ZNSt3__117__compressed_pairImNS_9allocatorIP9GameStateEEE5firstB7v160006Ev, symObjAddr: 0x3EF4, symBinAddr: 0x1000055A4, symSize: 0x24 }
  - { offsetInCU: 0x16308, offset: 0x336C2, size: 0x8, addend: 0x0, symName: __ZNSt3__122__compressed_pair_elemImLi0ELb0EE5__getB7v160006Ev, symObjAddr: 0x3F18, symBinAddr: 0x1000055C8, symSize: 0x14 }
  - { offsetInCU: 0x1632E, offset: 0x336E8, size: 0x8, addend: 0x0, symName: __ZNSt3__114__split_bufferIPP9GameStateNS_9allocatorIS3_EEE19__destruct_at_beginB7v160006EPS3_, symObjAddr: 0x3F2C, symBinAddr: 0x1000055DC, symSize: 0x2C }
  - { offsetInCU: 0x16363, offset: 0x3371D, size: 0x8, addend: 0x0, symName: __ZNSt3__114__split_bufferIPP9GameStateNS_9allocatorIS3_EEE19__destruct_at_beginEPS3_NS_17integral_constantIbLb1EEE, symObjAddr: 0x3F58, symBinAddr: 0x100005608, symSize: 0x74 }
  - { offsetInCU: 0x163A5, offset: 0x3375F, size: 0x8, addend: 0x0, symName: __ZNSt3__19allocatorIP9GameStateE10deallocateB7v160006EPS2_m, symObjAddr: 0x3FCC, symBinAddr: 0x10000567C, symSize: 0x7C }
  - { offsetInCU: 0x163E9, offset: 0x337A3, size: 0x8, addend: 0x0, symName: __ZNSt3__117__compressed_pairImNS_9allocatorIP9GameStateEEE6secondB7v160006Ev, symObjAddr: 0x40D0, symBinAddr: 0x100005780, symSize: 0x24 }
  - { offsetInCU: 0x1640F, offset: 0x337C9, size: 0x8, addend: 0x0, symName: __ZNSt3__122__compressed_pair_elemINS_9allocatorIP9GameStateEELi1ELb1EE5__getB7v160006Ev, symObjAddr: 0x40F4, symBinAddr: 0x1000057A4, symSize: 0x14 }
  - { offsetInCU: 0x16435, offset: 0x337EF, size: 0x8, addend: 0x0, symName: __ZNSt3__114__split_bufferIPP9GameStateNS_9allocatorIS3_EEED2Ev, symObjAddr: 0x4108, symBinAddr: 0x1000057B8, symSize: 0xEC }
  - { offsetInCU: 0x16461, offset: 0x3381B, size: 0x8, addend: 0x0, symName: __ZNSt3__114__split_bufferIPP9GameStateNS_9allocatorIS3_EEE5clearB7v160006Ev, symObjAddr: 0x41F4, symBinAddr: 0x1000058A4, symSize: 0x68 }
  - { offsetInCU: 0x16487, offset: 0x33841, size: 0x8, addend: 0x0, symName: __ZNSt3__116allocator_traitsINS_9allocatorIPP9GameStateEEE10deallocateB7v160006ERS5_PS4_m, symObjAddr: 0x425C, symBinAddr: 0x10000590C, symSize: 0x34 }
  - { offsetInCU: 0x164CC, offset: 0x33886, size: 0x8, addend: 0x0, symName: __ZNSt3__114__split_bufferIPP9GameStateNS_9allocatorIS3_EEE7__allocB7v160006Ev, symObjAddr: 0x4290, symBinAddr: 0x100005940, symSize: 0x28 }
  - { offsetInCU: 0x164F2, offset: 0x338AC, size: 0x8, addend: 0x0, symName: __ZNKSt3__114__split_bufferIPP9GameStateNS_9allocatorIS3_EEE8capacityB7v160006Ev, symObjAddr: 0x42B8, symBinAddr: 0x100005968, symSize: 0xBC }
  - { offsetInCU: 0x16518, offset: 0x338D2, size: 0x8, addend: 0x0, symName: __ZNSt3__114__split_bufferIPP9GameStateNS_9allocatorIS3_EEE17__destruct_at_endB7v160006EPS3_, symObjAddr: 0x4374, symBinAddr: 0x100005A24, symSize: 0x2C }
  - { offsetInCU: 0x1654D, offset: 0x33907, size: 0x8, addend: 0x0, symName: __ZNSt3__114__split_bufferIPP9GameStateNS_9allocatorIS3_EEE17__destruct_at_endB7v160006EPS3_NS_17integral_constantIbLb0EEE, symObjAddr: 0x43A0, symBinAddr: 0x100005A50, symSize: 0x120 }
  - { offsetInCU: 0x1658F, offset: 0x33949, size: 0x8, addend: 0x0, symName: __ZNSt3__116allocator_traitsINS_9allocatorIPP9GameStateEEE7destroyB7v160006IS4_vEEvRS5_PT_, symObjAddr: 0x44C0, symBinAddr: 0x100005B70, symSize: 0x2C }
  - { offsetInCU: 0x165CE, offset: 0x33988, size: 0x8, addend: 0x0, symName: __ZNSt3__19allocatorIPP9GameStateE7destroyB7v160006EPS3_, symObjAddr: 0x4500, symBinAddr: 0x100005BB0, symSize: 0x14 }
  - { offsetInCU: 0x16603, offset: 0x339BD, size: 0x8, addend: 0x0, symName: __ZNSt3__19allocatorIPP9GameStateE10deallocateB7v160006EPS3_m, symObjAddr: 0x4514, symBinAddr: 0x100005BC4, symSize: 0x7C }
  - { offsetInCU: 0x16647, offset: 0x33A01, size: 0x8, addend: 0x0, symName: __ZNSt3__117__compressed_pairIPPP9GameStateNS_9allocatorIS3_EEE6secondB7v160006Ev, symObjAddr: 0x4590, symBinAddr: 0x100005C40, symSize: 0x24 }
  - { offsetInCU: 0x1666D, offset: 0x33A27, size: 0x8, addend: 0x0, symName: __ZNSt3__122__compressed_pair_elemINS_9allocatorIPP9GameStateEELi1ELb1EE5__getB7v160006Ev, symObjAddr: 0x45B4, symBinAddr: 0x100005C64, symSize: 0x14 }
  - { offsetInCU: 0x16693, offset: 0x33A4D, size: 0x8, addend: 0x0, symName: __ZNKSt3__114__split_bufferIPP9GameStateNS_9allocatorIS3_EEE9__end_capB7v160006Ev, symObjAddr: 0x45C8, symBinAddr: 0x100005C78, symSize: 0x28 }
  - { offsetInCU: 0x166B9, offset: 0x33A73, size: 0x8, addend: 0x0, symName: __ZNKSt3__117__compressed_pairIPPP9GameStateNS_9allocatorIS3_EEE5firstB7v160006Ev, symObjAddr: 0x45F0, symBinAddr: 0x100005CA0, symSize: 0x24 }
  - { offsetInCU: 0x166DF, offset: 0x33A99, size: 0x8, addend: 0x0, symName: __ZNKSt3__122__compressed_pair_elemIPPP9GameStateLi0ELb0EE5__getB7v160006Ev, symObjAddr: 0x4614, symBinAddr: 0x100005CC4, symSize: 0x14 }
  - { offsetInCU: 0x16705, offset: 0x33ABF, size: 0x8, addend: 0x0, symName: __ZN2sf15ContextSettingsC2Ejjjjjjb, symObjAddr: 0x4628, symBinAddr: 0x100005CD8, symSize: 0x348 }
  - { offsetInCU: 0x16798, offset: 0x33B52, size: 0x8, addend: 0x0, symName: __ZN2sf6StringD2Ev, symObjAddr: 0x4970, symBinAddr: 0x100006020, symSize: 0x2C }
  - { offsetInCU: 0x167C4, offset: 0x33B7E, size: 0x8, addend: 0x0, symName: __ZNSt3__112basic_stringIjNS_11char_traitsIjEENS_9allocatorIjEEED1Ev, symObjAddr: 0x499C, symBinAddr: 0x10000604C, symSize: 0x2C }
  - { offsetInCU: 0x167F0, offset: 0x33BAA, size: 0x8, addend: 0x0, symName: __ZNSt3__112basic_stringIjNS_11char_traitsIjEENS_9allocatorIjEEED2Ev, symObjAddr: 0x49C8, symBinAddr: 0x100006078, symSize: 0x7C }
  - { offsetInCU: 0x1681C, offset: 0x33BD6, size: 0x8, addend: 0x0, symName: __ZNKSt3__112basic_stringIjNS_11char_traitsIjEENS_9allocatorIjEEE9__is_longB7v160006Ev, symObjAddr: 0x4A54, symBinAddr: 0x100006104, symSize: 0xE0 }
  - { offsetInCU: 0x16842, offset: 0x33BFC, size: 0x8, addend: 0x0, symName: __ZNSt3__116allocator_traitsINS_9allocatorIjEEE10deallocateB7v160006ERS2_Pjm, symObjAddr: 0x4B34, symBinAddr: 0x1000061E4, symSize: 0x34 }
  - { offsetInCU: 0x16887, offset: 0x33C41, size: 0x8, addend: 0x0, symName: __ZNSt3__112basic_stringIjNS_11char_traitsIjEENS_9allocatorIjEEE7__allocB7v160006Ev, symObjAddr: 0x4B68, symBinAddr: 0x100006218, symSize: 0x24 }
  - { offsetInCU: 0x168AD, offset: 0x33C67, size: 0x8, addend: 0x0, symName: __ZNSt3__112basic_stringIjNS_11char_traitsIjEENS_9allocatorIjEEE18__get_long_pointerB7v160006Ev, symObjAddr: 0x4B8C, symBinAddr: 0x10000623C, symSize: 0x6C }
  - { offsetInCU: 0x168D3, offset: 0x33C8D, size: 0x8, addend: 0x0, symName: __ZNKSt3__112basic_stringIjNS_11char_traitsIjEENS_9allocatorIjEEE14__get_long_capB7v160006Ev, symObjAddr: 0x4BF8, symBinAddr: 0x1000062A8, symSize: 0x78 }
  - { offsetInCU: 0x168F9, offset: 0x33CB3, size: 0x8, addend: 0x0, symName: __ZNKSt3__117__compressed_pairINS_12basic_stringIjNS_11char_traitsIjEENS_9allocatorIjEEE5__repES5_E5firstB7v160006Ev, symObjAddr: 0x4C70, symBinAddr: 0x100006320, symSize: 0x24 }
  - { offsetInCU: 0x1691F, offset: 0x33CD9, size: 0x8, addend: 0x0, symName: __ZNKSt3__122__compressed_pair_elemINS_12basic_stringIjNS_11char_traitsIjEENS_9allocatorIjEEE5__repELi0ELb0EE5__getB7v160006Ev, symObjAddr: 0x4C94, symBinAddr: 0x100006344, symSize: 0x14 }
  - { offsetInCU: 0x16945, offset: 0x33CFF, size: 0x8, addend: 0x0, symName: __ZNSt3__19allocatorIjE10deallocateB7v160006EPjm, symObjAddr: 0x4CA8, symBinAddr: 0x100006358, symSize: 0x7C }
  - { offsetInCU: 0x16989, offset: 0x33D43, size: 0x8, addend: 0x0, symName: __ZNSt3__117__compressed_pairINS_12basic_stringIjNS_11char_traitsIjEENS_9allocatorIjEEE5__repES5_E6secondB7v160006Ev, symObjAddr: 0x4D24, symBinAddr: 0x1000063D4, symSize: 0x24 }
  - { offsetInCU: 0x169AF, offset: 0x33D69, size: 0x8, addend: 0x0, symName: __ZNSt3__122__compressed_pair_elemINS_9allocatorIjEELi1ELb1EE5__getB7v160006Ev, symObjAddr: 0x4D48, symBinAddr: 0x1000063F8, symSize: 0x14 }
  - { offsetInCU: 0x169D5, offset: 0x33D8F, size: 0x8, addend: 0x0, symName: __ZNSt3__117__compressed_pairINS_12basic_stringIjNS_11char_traitsIjEENS_9allocatorIjEEE5__repES5_E5firstB7v160006Ev, symObjAddr: 0x4D5C, symBinAddr: 0x10000640C, symSize: 0x24 }
  - { offsetInCU: 0x169FB, offset: 0x33DB5, size: 0x8, addend: 0x0, symName: __ZNSt3__122__compressed_pair_elemINS_12basic_stringIjNS_11char_traitsIjEENS_9allocatorIjEEE5__repELi0ELb0EE5__getB7v160006Ev, symObjAddr: 0x4D80, symBinAddr: 0x100006430, symSize: 0x14 }
  - { offsetInCU: 0x16A21, offset: 0x33DDB, size: 0x8, addend: 0x0, symName: __ZNSt3__15stackIP9GameStateNS_5dequeIS2_NS_9allocatorIS2_EEEEEC2B7v160006Ev, symObjAddr: 0x4D94, symBinAddr: 0x100006444, symSize: 0x2C }
  - { offsetInCU: 0x16A4B, offset: 0x33E05, size: 0x8, addend: 0x0, symName: __ZNSt3__15dequeIP9GameStateNS_9allocatorIS2_EEEC1B7v160006Ev, symObjAddr: 0x4DC0, symBinAddr: 0x100006470, symSize: 0x2C }
  - { offsetInCU: 0x16A75, offset: 0x33E2F, size: 0x8, addend: 0x0, symName: __ZNSt3__15dequeIP9GameStateNS_9allocatorIS2_EEEC2B7v160006Ev, symObjAddr: 0x4DEC, symBinAddr: 0x10000649C, symSize: 0x36C }
  - { offsetInCU: 0x16AA0, offset: 0x33E5A, size: 0x8, addend: 0x0, symName: __ZNSt3__114__split_bufferIPP9GameStateNS_9allocatorIS3_EEEC1Ev, symObjAddr: 0x5158, symBinAddr: 0x100006808, symSize: 0x2C }
  - { offsetInCU: 0x16AD6, offset: 0x33E90, size: 0x8, addend: 0x0, symName: __ZNSt3__117__compressed_pairImNS_9allocatorIP9GameStateEEEC1B7v160006IiNS_18__default_init_tagEEEOT_OT0_, symObjAddr: 0x5184, symBinAddr: 0x100006834, symSize: 0x3C }
  - { offsetInCU: 0x16B30, offset: 0x33EEA, size: 0x8, addend: 0x0, symName: __ZNSt3__114__split_bufferIPP9GameStateNS_9allocatorIS3_EEEC2Ev, symObjAddr: 0x51C0, symBinAddr: 0x100006870, symSize: 0x30C }
  - { offsetInCU: 0x16B62, offset: 0x33F1C, size: 0x8, addend: 0x0, symName: __ZNSt3__117__compressed_pairIPPP9GameStateNS_9allocatorIS3_EEEC1B7v160006IDnNS_18__default_init_tagEEEOT_OT0_, symObjAddr: 0x54CC, symBinAddr: 0x100006B7C, symSize: 0x3C }
  - { offsetInCU: 0x16BBC, offset: 0x33F76, size: 0x8, addend: 0x0, symName: __ZNSt3__117__compressed_pairIPPP9GameStateNS_9allocatorIS3_EEEC2B7v160006IDnNS_18__default_init_tagEEEOT_OT0_, symObjAddr: 0x5508, symBinAddr: 0x100006BB8, symSize: 0x40 }
  - { offsetInCU: 0x16C16, offset: 0x33FD0, size: 0x8, addend: 0x0, symName: __ZNSt3__122__compressed_pair_elemIPPP9GameStateLi0ELb0EEC2B7v160006IDnvEEOT_, symObjAddr: 0x5548, symBinAddr: 0x100006BF8, symSize: 0x64 }
  - { offsetInCU: 0x16C59, offset: 0x34013, size: 0x8, addend: 0x0, symName: __ZNSt3__122__compressed_pair_elemINS_9allocatorIPP9GameStateEELi1ELb1EEC2B7v160006ENS_18__default_init_tagE, symObjAddr: 0x55AC, symBinAddr: 0x100006C5C, symSize: 0x2C }
  - { offsetInCU: 0x16C8E, offset: 0x34048, size: 0x8, addend: 0x0, symName: __ZNSt3__19allocatorIPP9GameStateEC2B7v160006Ev, symObjAddr: 0x55D8, symBinAddr: 0x100006C88, symSize: 0x2C }
  - { offsetInCU: 0x16CB8, offset: 0x34072, size: 0x8, addend: 0x0, symName: __ZNSt3__116__non_trivial_ifILb1ENS_9allocatorIPP9GameStateEEEC2B7v160006Ev, symObjAddr: 0x5604, symBinAddr: 0x100006CB4, symSize: 0x14 }
  - { offsetInCU: 0x16CE2, offset: 0x3409C, size: 0x8, addend: 0x0, symName: __ZNSt3__117__compressed_pairImNS_9allocatorIP9GameStateEEEC2B7v160006IiNS_18__default_init_tagEEEOT_OT0_, symObjAddr: 0x5618, symBinAddr: 0x100006CC8, symSize: 0x40 }
  - { offsetInCU: 0x16D3C, offset: 0x340F6, size: 0x8, addend: 0x0, symName: __ZNSt3__122__compressed_pair_elemImLi0ELb0EEC2B7v160006IivEEOT_, symObjAddr: 0x5658, symBinAddr: 0x100006D08, symSize: 0xD8 }
  - { offsetInCU: 0x16D7F, offset: 0x34139, size: 0x8, addend: 0x0, symName: __ZNSt3__122__compressed_pair_elemINS_9allocatorIP9GameStateEELi1ELb1EEC2B7v160006ENS_18__default_init_tagE, symObjAddr: 0x5730, symBinAddr: 0x100006DE0, symSize: 0x2C }
  - { offsetInCU: 0x16DB4, offset: 0x3416E, size: 0x8, addend: 0x0, symName: __ZNSt3__19allocatorIP9GameStateEC2B7v160006Ev, symObjAddr: 0x575C, symBinAddr: 0x100006E0C, symSize: 0x2C }
  - { offsetInCU: 0x16DDE, offset: 0x34198, size: 0x8, addend: 0x0, symName: __ZNSt3__116__non_trivial_ifILb1ENS_9allocatorIP9GameStateEEEC2B7v160006Ev, symObjAddr: 0x5788, symBinAddr: 0x100006E38, symSize: 0x14 }
  - { offsetInCU: 0x16E08, offset: 0x341C2, size: 0x8, addend: 0x0, symName: __ZNKSt3__15dequeIP9GameStateNS_9allocatorIS2_EEE5emptyB7v160006Ev, symObjAddr: 0x579C, symBinAddr: 0x100006E4C, symSize: 0x30 }
  - { offsetInCU: 0x16E2E, offset: 0x341E8, size: 0x8, addend: 0x0, symName: __ZNSt3__15dequeIP9GameStateNS_9allocatorIS2_EEE4backEv, symObjAddr: 0x57CC, symBinAddr: 0x100006E7C, symSize: 0xEC }
  - { offsetInCU: 0x16E66, offset: 0x34220, size: 0x8, addend: 0x0, symName: __ZNSt3__15dequeIP9GameStateNS_9allocatorIS2_EEE8pop_backEv, symObjAddr: 0x58B8, symBinAddr: 0x100006F68, symSize: 0x16C }
  - { offsetInCU: 0x16EAE, offset: 0x34268, size: 0x8, addend: 0x0, symName: __ZNSt3__15dequeIP9GameStateNS_9allocatorIS2_EEE25__maybe_remove_back_spareB7v160006Eb, symObjAddr: 0x5A38, symBinAddr: 0x1000070E8, symSize: 0x10C }
  - { offsetInCU: 0x16EE4, offset: 0x3429E, size: 0x8, addend: 0x0, symName: __ZNKSt3__15dequeIP9GameStateNS_9allocatorIS2_EEE19__back_spare_blocksB7v160006Ev, symObjAddr: 0x5B44, symBinAddr: 0x1000071F4, symSize: 0x2C }
  - { offsetInCU: 0x16F0A, offset: 0x342C4, size: 0x8, addend: 0x0, symName: __ZNSt3__114__split_bufferIPP9GameStateNS_9allocatorIS3_EEE4backB7v160006Ev, symObjAddr: 0x5B70, symBinAddr: 0x100007220, symSize: 0x68 }
  - { offsetInCU: 0x16F30, offset: 0x342EA, size: 0x8, addend: 0x0, symName: __ZNSt3__114__split_bufferIPP9GameStateNS_9allocatorIS3_EEE8pop_backB7v160006Ev, symObjAddr: 0x5BD8, symBinAddr: 0x100007288, symSize: 0x6C }
  - { offsetInCU: 0x16F56, offset: 0x34310, size: 0x8, addend: 0x0, symName: __ZNKSt3__15dequeIP9GameStateNS_9allocatorIS2_EEE12__back_spareB7v160006Ev, symObjAddr: 0x5C44, symBinAddr: 0x1000072F4, symSize: 0x90 }
  - { offsetInCU: 0x16F7C, offset: 0x34336, size: 0x8, addend: 0x0, symName: __ZNKSt3__15dequeIP9GameStateNS_9allocatorIS2_EEE10__capacityB7v160006Ev, symObjAddr: 0x5CD4, symBinAddr: 0x100007384, symSize: 0x60 }
  - { offsetInCU: 0x16FA2, offset: 0x3435C, size: 0x8, addend: 0x0, symName: __ZNSt3__111char_traitsIcE6lengthEPKc, symObjAddr: 0x6480, symBinAddr: 0x100007B30, symSize: 0x54 }
  - { offsetInCU: 0x16FE4, offset: 0x3439E, size: 0x8, addend: 0x0, symName: __ZNKSt3__113basic_ostreamIcNS_11char_traitsIcEEE6sentrycvbB7v160006Ev, symObjAddr: 0x64D4, symBinAddr: 0x100007B84, symSize: 0x88 }
  - { offsetInCU: 0x1700A, offset: 0x343C4, size: 0x8, addend: 0x0, symName: __ZNSt3__119ostreambuf_iteratorIcNS_11char_traitsIcEEEC1B7v160006ERNS_13basic_ostreamIcS2_EE, symObjAddr: 0x6CD0, symBinAddr: 0x100008380, symSize: 0x34 }
  - { offsetInCU: 0x17043, offset: 0x343FD, size: 0x8, addend: 0x0, symName: __ZNKSt3__18ios_base5flagsB7v160006Ev, symObjAddr: 0x6D04, symBinAddr: 0x1000083B4, symSize: 0x8C }
  - { offsetInCU: 0x1706B, offset: 0x34425, size: 0x8, addend: 0x0, symName: __ZNKSt3__19basic_iosIcNS_11char_traitsIcEEE4fillB7v160006Ev, symObjAddr: 0x6D90, symBinAddr: 0x100008440, symSize: 0x198 }
  - { offsetInCU: 0x17093, offset: 0x3444D, size: 0x8, addend: 0x0, symName: __ZNKSt3__119ostreambuf_iteratorIcNS_11char_traitsIcEEE6failedB7v160006Ev, symObjAddr: 0x6F28, symBinAddr: 0x1000085D8, symSize: 0x6C }
  - { offsetInCU: 0x170B9, offset: 0x34473, size: 0x8, addend: 0x0, symName: __ZNSt3__19basic_iosIcNS_11char_traitsIcEEE8setstateB7v160006Ej, symObjAddr: 0x6F94, symBinAddr: 0x100008644, symSize: 0x2C }
  - { offsetInCU: 0x170EF, offset: 0x344A9, size: 0x8, addend: 0x0, symName: __ZNKSt3__18ios_base5widthB7v160006Ev, symObjAddr: 0x6FC0, symBinAddr: 0x100008670, symSize: 0x64 }
  - { offsetInCU: 0x17117, offset: 0x344D1, size: 0x8, addend: 0x0, symName: __ZNSt3__115basic_streambufIcNS_11char_traitsIcEEE5sputnB7v160006EPKcl, symObjAddr: 0x7024, symBinAddr: 0x1000086D4, symSize: 0xC8 }
  - { offsetInCU: 0x1715B, offset: 0x34515, size: 0x8, addend: 0x0, symName: __ZNSt3__112basic_stringIcNS_11char_traitsIcEENS_9allocatorIcEEEC1B7v160006Emc, symObjAddr: 0x70EC, symBinAddr: 0x10000879C, symSize: 0x3C }
  - { offsetInCU: 0x171A5, offset: 0x3455F, size: 0x8, addend: 0x0, symName: __ZNKSt3__112basic_stringIcNS_11char_traitsIcEENS_9allocatorIcEEE4dataB7v160006Ev, symObjAddr: 0x7128, symBinAddr: 0x1000087D8, symSize: 0x28 }
  - { offsetInCU: 0x171CB, offset: 0x34585, size: 0x8, addend: 0x0, symName: __ZNSt3__18ios_base5widthB7v160006El, symObjAddr: 0x7150, symBinAddr: 0x100008800, symSize: 0xB8 }
  - { offsetInCU: 0x17213, offset: 0x345CD, size: 0x8, addend: 0x0, symName: __ZNSt3__112basic_stringIcNS_11char_traitsIcEENS_9allocatorIcEEEC2B7v160006Emc, symObjAddr: 0x7208, symBinAddr: 0x1000088B8, symSize: 0x20C }
  - { offsetInCU: 0x17260, offset: 0x3461A, size: 0x8, addend: 0x0, symName: __ZNSt3__117__compressed_pairINS_12basic_stringIcNS_11char_traitsIcEENS_9allocatorIcEEE5__repES5_EC1B7v160006INS_18__default_init_tagESA_EEOT_OT0_, symObjAddr: 0x7414, symBinAddr: 0x100008AC4, symSize: 0x3C }
  - { offsetInCU: 0x172BA, offset: 0x34674, size: 0x8, addend: 0x0, symName: __ZNSt3__117__compressed_pairINS_12basic_stringIcNS_11char_traitsIcEENS_9allocatorIcEEE5__repES5_EC2B7v160006INS_18__default_init_tagESA_EEOT_OT0_, symObjAddr: 0x7460, symBinAddr: 0x100008B10, symSize: 0x3C }
  - { offsetInCU: 0x17314, offset: 0x346CE, size: 0x8, addend: 0x0, symName: __ZNSt3__122__compressed_pair_elemINS_12basic_stringIcNS_11char_traitsIcEENS_9allocatorIcEEE5__repELi0ELb0EEC2B7v160006ENS_18__default_init_tagE, symObjAddr: 0x749C, symBinAddr: 0x100008B4C, symSize: 0x14 }
  - { offsetInCU: 0x17349, offset: 0x34703, size: 0x8, addend: 0x0, symName: __ZNSt3__122__compressed_pair_elemINS_9allocatorIcEELi1ELb1EEC2B7v160006ENS_18__default_init_tagE, symObjAddr: 0x74B0, symBinAddr: 0x100008B60, symSize: 0x2C }
  - { offsetInCU: 0x1737E, offset: 0x34738, size: 0x8, addend: 0x0, symName: __ZNSt3__19allocatorIcEC2B7v160006Ev, symObjAddr: 0x74DC, symBinAddr: 0x100008B8C, symSize: 0x2C }
  - { offsetInCU: 0x173A8, offset: 0x34762, size: 0x8, addend: 0x0, symName: __ZNSt3__116__non_trivial_ifILb1ENS_9allocatorIcEEEC2B7v160006Ev, symObjAddr: 0x7508, symBinAddr: 0x100008BB8, symSize: 0x14 }
  - { offsetInCU: 0x173D2, offset: 0x3478C, size: 0x8, addend: 0x0, symName: __ZNKSt3__112basic_stringIcNS_11char_traitsIcEENS_9allocatorIcEEE13__get_pointerB7v160006Ev, symObjAddr: 0x7530, symBinAddr: 0x100008BE0, symSize: 0x54 }
  - { offsetInCU: 0x173F8, offset: 0x347B2, size: 0x8, addend: 0x0, symName: __ZNKSt3__112basic_stringIcNS_11char_traitsIcEENS_9allocatorIcEEE9__is_longB7v160006Ev, symObjAddr: 0x7584, symBinAddr: 0x100008C34, symSize: 0xE0 }
  - { offsetInCU: 0x1741E, offset: 0x347D8, size: 0x8, addend: 0x0, symName: __ZNKSt3__112basic_stringIcNS_11char_traitsIcEENS_9allocatorIcEEE18__get_long_pointerB7v160006Ev, symObjAddr: 0x7664, symBinAddr: 0x100008D14, symSize: 0x6C }
  - { offsetInCU: 0x17444, offset: 0x347FE, size: 0x8, addend: 0x0, symName: __ZNKSt3__112basic_stringIcNS_11char_traitsIcEENS_9allocatorIcEEE19__get_short_pointerB7v160006Ev, symObjAddr: 0x76D0, symBinAddr: 0x100008D80, symSize: 0x28 }
  - { offsetInCU: 0x1746A, offset: 0x34824, size: 0x8, addend: 0x0, symName: __ZNKSt3__117__compressed_pairINS_12basic_stringIcNS_11char_traitsIcEENS_9allocatorIcEEE5__repES5_E5firstB7v160006Ev, symObjAddr: 0x76F8, symBinAddr: 0x100008DA8, symSize: 0x24 }
  - { offsetInCU: 0x17490, offset: 0x3484A, size: 0x8, addend: 0x0, symName: __ZNKSt3__122__compressed_pair_elemINS_12basic_stringIcNS_11char_traitsIcEENS_9allocatorIcEEE5__repELi0ELb0EE5__getB7v160006Ev, symObjAddr: 0x771C, symBinAddr: 0x100008DCC, symSize: 0x14 }
  - { offsetInCU: 0x174B6, offset: 0x34870, size: 0x8, addend: 0x0, symName: __ZNSt3__114pointer_traitsIPKcE10pointer_toB7v160006ERS1_, symObjAddr: 0x7730, symBinAddr: 0x100008DE0, symSize: 0x14 }
  - { offsetInCU: 0x174DA, offset: 0x34894, size: 0x8, addend: 0x0, symName: __ZNSt3__119ostreambuf_iteratorIcNS_11char_traitsIcEEEC2B7v160006ERNS_13basic_ostreamIcS2_EE, symObjAddr: 0x7744, symBinAddr: 0x100008DF4, symSize: 0x120 }
  - { offsetInCU: 0x17513, offset: 0x348CD, size: 0x8, addend: 0x0, symName: __ZNKSt3__19basic_iosIcNS_11char_traitsIcEEE5rdbufB7v160006Ev, symObjAddr: 0x7864, symBinAddr: 0x100008F14, symSize: 0x24 }
  - { offsetInCU: 0x1753B, offset: 0x348F5, size: 0x8, addend: 0x0, symName: __ZNKSt3__18ios_base5rdbufB7v160006Ev, symObjAddr: 0x7888, symBinAddr: 0x100008F38, symSize: 0x64 }
  - { offsetInCU: 0x17561, offset: 0x3491B, size: 0x8, addend: 0x0, symName: __ZNSt3__111char_traitsIcE11eq_int_typeEii, symObjAddr: 0x78EC, symBinAddr: 0x100008F9C, symSize: 0x28 }
  - { offsetInCU: 0x17594, offset: 0x3494E, size: 0x8, addend: 0x0, symName: __ZNSt3__111char_traitsIcE3eofEv, symObjAddr: 0x7914, symBinAddr: 0x100008FC4, symSize: 0x8 }
  - { offsetInCU: 0x175A8, offset: 0x34962, size: 0x8, addend: 0x0, symName: __ZNKSt3__19basic_iosIcNS_11char_traitsIcEEE5widenB7v160006Ec, symObjAddr: 0x791C, symBinAddr: 0x100008FCC, symSize: 0x2B8 }
  - { offsetInCU: 0x17614, offset: 0x349CE, size: 0x8, addend: 0x0, symName: __ZNKSt3__15ctypeIcE5widenB7v160006Ec, symObjAddr: 0x7C00, symBinAddr: 0x1000092B0, symSize: 0xBC }
  - { offsetInCU: 0x1764A, offset: 0x34A04, size: 0x8, addend: 0x0, symName: __ZNSt3__18ios_base8setstateB7v160006Ej, symObjAddr: 0x7CBC, symBinAddr: 0x10000936C, symSize: 0x9C }
  - { offsetInCU: 0x17682, offset: 0x34A3C, size: 0x8, addend: 0x0, symName: __ZNSt3__15dequeIP9GameStateNS_9allocatorIS2_EEE9push_backERKS2_, symObjAddr: 0x7D7C, symBinAddr: 0x10000942C, symSize: 0x2C0 }
  - { offsetInCU: 0x176CD, offset: 0x34A87, size: 0x8, addend: 0x0, symName: __ZNSt3__15dequeIP9GameStateNS_9allocatorIS2_EEE19__add_back_capacityEv, symObjAddr: 0x803C, symBinAddr: 0x1000096EC, symSize: 0xA1C }
  - { offsetInCU: 0x1778F, offset: 0x34B49, size: 0x8, addend: 0x0, symName: __ZNSt3__116allocator_traitsINS_9allocatorIP9GameStateEEE9constructB7v160006IS3_JRKS3_EvEEvRS4_PT_DpOT0_, symObjAddr: 0x8A58, symBinAddr: 0x10000A108, symSize: 0x34 }
  - { offsetInCU: 0x177E9, offset: 0x34BA3, size: 0x8, addend: 0x0, symName: __ZNKSt3__15dequeIP9GameStateNS_9allocatorIS2_EEE13__front_spareB7v160006Ev, symObjAddr: 0x8A8C, symBinAddr: 0x10000A13C, symSize: 0x64 }
  - { offsetInCU: 0x1780F, offset: 0x34BC9, size: 0x8, addend: 0x0, symName: __ZNSt3__114__split_bufferIPP9GameStateNS_9allocatorIS3_EEE9push_backB7v160006ERKS3_, symObjAddr: 0x8AF0, symBinAddr: 0x10000A1A0, symSize: 0xA60 }
  - { offsetInCU: 0x17894, offset: 0x34C4E, size: 0x8, addend: 0x0, symName: __ZNKSt3__114__split_bufferIPP9GameStateNS_9allocatorIS3_EEE12__back_spareB7v160006Ev, symObjAddr: 0x9550, symBinAddr: 0x10000AC00, symSize: 0xC0 }
  - { offsetInCU: 0x178BA, offset: 0x34C74, size: 0x8, addend: 0x0, symName: __ZNSt3__114__split_bufferIPP9GameStateNS_9allocatorIS3_EEE9push_backEOS3_, symObjAddr: 0x9610, symBinAddr: 0x10000ACC0, symSize: 0xA60 }
  - { offsetInCU: 0x1793F, offset: 0x34CF9, size: 0x8, addend: 0x0, symName: __ZNSt3__116allocator_traitsINS_9allocatorIP9GameStateEEE8allocateB7v160006ERS4_m, symObjAddr: 0xA070, symBinAddr: 0x10000B720, symSize: 0x2C }
  - { offsetInCU: 0x17974, offset: 0x34D2E, size: 0x8, addend: 0x0, symName: __ZNSt3__114__split_bufferIPP9GameStateNS_9allocatorIS3_EEE10push_frontEOS3_, symObjAddr: 0xA09C, symBinAddr: 0x10000B74C, symSize: 0xA64 }
  - { offsetInCU: 0x179F9, offset: 0x34DB3, size: 0x8, addend: 0x0, symName: __ZNSt3__114__split_bufferIPP9GameStateRNS_9allocatorIS3_EEEC1EmmS6_, symObjAddr: 0xAB2C, symBinAddr: 0x10000C1DC, symSize: 0x44 }
  - { offsetInCU: 0x17A57, offset: 0x34E11, size: 0x8, addend: 0x0, symName: __ZNSt3__122__allocator_destructorINS_9allocatorIP9GameStateEEEC1B7v160006ERS4_m, symObjAddr: 0xAB70, symBinAddr: 0x10000C220, symSize: 0x3C }
  - { offsetInCU: 0x17B21, offset: 0x34EDB, size: 0x8, addend: 0x0, symName: __ZNSt3__110unique_ptrIPP9GameStateNS_22__allocator_destructorINS_9allocatorIS2_EEEEEC1B7v160006ILb1EvEES3_NS_16__dependent_typeINS_27__unique_ptr_deleter_sfinaeIS7_EEXT_EE20__good_rval_ref_typeE, symObjAddr: 0xABAC, symBinAddr: 0x10000C25C, symSize: 0x3C }
  - { offsetInCU: 0x17B74, offset: 0x34F2E, size: 0x8, addend: 0x0, symName: __ZNSt3__114__split_bufferIPP9GameStateRNS_9allocatorIS3_EEE9push_backEOS3_, symObjAddr: 0xABE8, symBinAddr: 0x10000C298, symSize: 0xA60 }
  - { offsetInCU: 0x17BF9, offset: 0x34FB3, size: 0x8, addend: 0x0, symName: __ZNKSt3__110unique_ptrIPP9GameStateNS_22__allocator_destructorINS_9allocatorIS2_EEEEE3getB7v160006Ev, symObjAddr: 0xB648, symBinAddr: 0x10000CCF8, symSize: 0x6C }
  - { offsetInCU: 0x17C1F, offset: 0x34FD9, size: 0x8, addend: 0x0, symName: __ZNSt3__110unique_ptrIPP9GameStateNS_22__allocator_destructorINS_9allocatorIS2_EEEEE7releaseB7v160006Ev, symObjAddr: 0xB6B4, symBinAddr: 0x10000CD64, symSize: 0xB8 }
  - { offsetInCU: 0x17C55, offset: 0x3500F, size: 0x8, addend: 0x0, symName: __ZNSt3__114__split_bufferIPP9GameStateRNS_9allocatorIS3_EEE10push_frontERKS3_, symObjAddr: 0xB76C, symBinAddr: 0x10000CE1C, symSize: 0xA64 }
  - { offsetInCU: 0x17CDA, offset: 0x35094, size: 0x8, addend: 0x0, symName: __ZNSt3__114__split_bufferIPP9GameStateNS_9allocatorIS3_EEE9__end_capB7v160006Ev, symObjAddr: 0xC304, symBinAddr: 0x10000D9B4, symSize: 0x28 }
  - { offsetInCU: 0x17D00, offset: 0x350BA, size: 0x8, addend: 0x0, symName: __ZNSt3__114__split_bufferIPP9GameStateRNS_9allocatorIS3_EEE9__end_capB7v160006Ev, symObjAddr: 0xC32C, symBinAddr: 0x10000D9DC, symSize: 0x28 }
  - { offsetInCU: 0x17D26, offset: 0x350E0, size: 0x8, addend: 0x0, symName: __ZNSt3__110unique_ptrIPP9GameStateNS_22__allocator_destructorINS_9allocatorIS2_EEEEED1B7v160006Ev, symObjAddr: 0xC354, symBinAddr: 0x10000DA04, symSize: 0x2C }
  - { offsetInCU: 0x17D50, offset: 0x3510A, size: 0x8, addend: 0x0, symName: __ZNSt3__114__split_bufferIPP9GameStateRNS_9allocatorIS3_EEED1Ev, symObjAddr: 0xC380, symBinAddr: 0x10000DA30, symSize: 0x2C }
  - { offsetInCU: 0x17D7C, offset: 0x35136, size: 0x8, addend: 0x0, symName: __ZNSt3__114__split_bufferIPP9GameStateRNS_9allocatorIS3_EEE18__construct_at_endINS_13move_iteratorIPS3_EEEENS_9enable_ifIXsr27__is_cpp17_forward_iteratorIT_EE5valueEvE4typeESD_SD_, symObjAddr: 0xC600, symBinAddr: 0x10000DCB0, symSize: 0x614 }
  - { offsetInCU: 0x17DE8, offset: 0x351A2, size: 0x8, addend: 0x0, symName: __ZNSt3__113move_iteratorIPPP9GameStateEC1B7v160006ES4_, symObjAddr: 0xCC14, symBinAddr: 0x10000E2C4, symSize: 0x34 }
  - { offsetInCU: 0x17E21, offset: 0x351DB, size: 0x8, addend: 0x0, symName: __ZNSt3__116allocator_traitsINS_9allocatorIPP9GameStateEEE9constructB7v160006IS4_JRKS4_EvEEvRS5_PT_DpOT0_, symObjAddr: 0xCC48, symBinAddr: 0x10000E2F8, symSize: 0x34 }
  - { offsetInCU: 0x17E9E, offset: 0x35258, size: 0x8, addend: 0x0, symName: __ZNKSt3__114__move_trivialclB7v160006IPP9GameStateS4_Li0EEENS_4pairIPT_PT0_EES7_S7_S9_, symObjAddr: 0xD9D8, symBinAddr: 0x10000F088, symSize: 0x230 }
  - { offsetInCU: 0x17F0E, offset: 0x352C8, size: 0x8, addend: 0x0, symName: __ZNSt3__14pairIPPP9GameStateS4_EC1B7v160006ERKS4_S7_, symObjAddr: 0xE484, symBinAddr: 0x10000FB34, symSize: 0x3C }
  - { offsetInCU: 0x17F56, offset: 0x35310, size: 0x8, addend: 0x0, symName: __ZNSt3__14pairIPPP9GameStateS4_EC2B7v160006ERKS4_S7_, symObjAddr: 0xE4C0, symBinAddr: 0x10000FB70, symSize: 0x138 }
  - { offsetInCU: 0x17F9E, offset: 0x35358, size: 0x8, addend: 0x0, symName: __ZNSt3__118__unwrap_iter_implIPPP9GameStateLb1EE8__unwrapB7v160006ES4_, symObjAddr: 0xE5F8, symBinAddr: 0x10000FCA8, symSize: 0x24 }
  - { offsetInCU: 0x17FC2, offset: 0x3537C, size: 0x8, addend: 0x0, symName: __ZNSt3__118__unwrap_iter_implIPPP9GameStateLb1EE8__rewrapB7v160006ES4_S4_, symObjAddr: 0xE61C, symBinAddr: 0x10000FCCC, symSize: 0x50 }
  - { offsetInCU: 0x17FFF, offset: 0x353B9, size: 0x8, addend: 0x0, symName: __ZNSt3__114__split_bufferIPP9GameStateRNS_9allocatorIS3_EEE21_ConstructTransactionC1B7v160006EPPS3_m, symObjAddr: 0xE9BC, symBinAddr: 0x10001006C, symSize: 0x3C }
  - { offsetInCU: 0x18047, offset: 0x35401, size: 0x8, addend: 0x0, symName: __ZNSt3__116allocator_traitsINS_9allocatorIPP9GameStateEEE9constructB7v160006IS4_JS4_EvEEvRS5_PT_DpOT0_, symObjAddr: 0xE9F8, symBinAddr: 0x1000100A8, symSize: 0x34 }
  - { offsetInCU: 0x180A1, offset: 0x3545B, size: 0x8, addend: 0x0, symName: __ZNSt3__114__split_bufferIPP9GameStateRNS_9allocatorIS3_EEE7__allocB7v160006Ev, symObjAddr: 0xEA2C, symBinAddr: 0x1000100DC, symSize: 0x28 }
  - { offsetInCU: 0x180C7, offset: 0x35481, size: 0x8, addend: 0x0, symName: __ZNKSt3__113move_iteratorIPPP9GameStateEdeB7v160006Ev, symObjAddr: 0xEA54, symBinAddr: 0x100010104, symSize: 0x60 }
  - { offsetInCU: 0x180ED, offset: 0x354A7, size: 0x8, addend: 0x0, symName: __ZNSt3__113move_iteratorIPPP9GameStateEppB7v160006Ev, symObjAddr: 0xEAB4, symBinAddr: 0x100010164, symSize: 0x68 }
  - { offsetInCU: 0x18113, offset: 0x354CD, size: 0x8, addend: 0x0, symName: __ZNSt3__114__split_bufferIPP9GameStateRNS_9allocatorIS3_EEE21_ConstructTransactionD1B7v160006Ev, symObjAddr: 0xEB1C, symBinAddr: 0x1000101CC, symSize: 0x2C }
  - { offsetInCU: 0x1813D, offset: 0x354F7, size: 0x8, addend: 0x0, symName: __ZNKSt3__113move_iteratorIPPP9GameStateE4baseB7v160006Ev, symObjAddr: 0xEE04, symBinAddr: 0x1000104B4, symSize: 0x60 }
  - { offsetInCU: 0x18163, offset: 0x3551D, size: 0x8, addend: 0x0, symName: __ZNSt3__114__split_bufferIPP9GameStateRNS_9allocatorIS3_EEE21_ConstructTransactionC2B7v160006EPPS3_m, symObjAddr: 0xEE64, symBinAddr: 0x100010514, symSize: 0x184 }
  - { offsetInCU: 0x181AB, offset: 0x35565, size: 0x8, addend: 0x0, symName: __ZNSt3__19allocatorIPP9GameStateE9constructB7v160006IS3_JS3_EEEvPT_DpOT0_, symObjAddr: 0xEFE8, symBinAddr: 0x100010698, symSize: 0xB4 }
  - { offsetInCU: 0x18203, offset: 0x355BD, size: 0x8, addend: 0x0, symName: __ZNSt3__117__compressed_pairIPPP9GameStateRNS_9allocatorIS3_EEE6secondB7v160006Ev, symObjAddr: 0xF09C, symBinAddr: 0x10001074C, symSize: 0x28 }
  - { offsetInCU: 0x18229, offset: 0x355E3, size: 0x8, addend: 0x0, symName: __ZNSt3__122__compressed_pair_elemIRNS_9allocatorIPP9GameStateEELi1ELb0EE5__getB7v160006Ev, symObjAddr: 0xF0C4, symBinAddr: 0x100010774, symSize: 0x60 }
  - { offsetInCU: 0x1824F, offset: 0x35609, size: 0x8, addend: 0x0, symName: __ZNSt3__114__split_bufferIPP9GameStateRNS_9allocatorIS3_EEE21_ConstructTransactionD2B7v160006Ev, symObjAddr: 0xF124, symBinAddr: 0x1000107D4, symSize: 0xE0 }
  - { offsetInCU: 0x18279, offset: 0x35633, size: 0x8, addend: 0x0, symName: __ZNSt3__113move_iteratorIPPP9GameStateEC2B7v160006ES4_, symObjAddr: 0xF204, symBinAddr: 0x1000108B4, symSize: 0x70 }
  - { offsetInCU: 0x182B2, offset: 0x3566C, size: 0x8, addend: 0x0, symName: __ZNSt3__19allocatorIPP9GameStateE9constructB7v160006IS3_JRKS3_EEEvPT_DpOT0_, symObjAddr: 0xF274, symBinAddr: 0x100010924, symSize: 0xB4 }
  - { offsetInCU: 0x1830A, offset: 0x356C4, size: 0x8, addend: 0x0, symName: __ZNSt3__19allocatorIP9GameStateE8allocateB7v160006Em, symObjAddr: 0xF328, symBinAddr: 0x1000109D8, symSize: 0x88 }
  - { offsetInCU: 0x18349, offset: 0x35703, size: 0x8, addend: 0x0, symName: __ZNSt3__116allocator_traitsINS_9allocatorIP9GameStateEEE8max_sizeB7v160006IS4_vEEmRKS4_, symObjAddr: 0xF3B0, symBinAddr: 0x100010A60, symSize: 0x24 }
  - { offsetInCU: 0x18378, offset: 0x35732, size: 0x8, addend: 0x0, symName: __ZNKSt3__19allocatorIP9GameStateE8max_sizeB7v160006Ev, symObjAddr: 0xF434, symBinAddr: 0x100010AE4, symSize: 0x14 }
  - { offsetInCU: 0x183A8, offset: 0x35762, size: 0x8, addend: 0x0, symName: __ZNKSt3__123__move_backward_trivialclB7v160006IPP9GameStateS4_Li0EEENS_4pairIPT_PT0_EES7_S7_S9_, symObjAddr: 0x100CC, symBinAddr: 0x10001177C, symSize: 0x230 }
  - { offsetInCU: 0x18422, offset: 0x357DC, size: 0x8, addend: 0x0, symName: __ZNKSt3__16__lessImmEclB7v160006ERKmS3_, symObjAddr: 0x10AD0, symBinAddr: 0x100012180, symSize: 0xBC }
  - { offsetInCU: 0x18466, offset: 0x35820, size: 0x8, addend: 0x0, symName: __ZNSt3__114__split_bufferIPP9GameStateRNS_9allocatorIS3_EEEC2EmmS6_, symObjAddr: 0x10B8C, symBinAddr: 0x10001223C, symSize: 0x520 }
  - { offsetInCU: 0x184E6, offset: 0x358A0, size: 0x8, addend: 0x0, symName: __ZNSt3__117__compressed_pairIPPP9GameStateRNS_9allocatorIS3_EEEC1B7v160006IDnS7_EEOT_OT0_, symObjAddr: 0x110AC, symBinAddr: 0x10001275C, symSize: 0x3C }
  - { offsetInCU: 0x18540, offset: 0x358FA, size: 0x8, addend: 0x0, symName: __ZNSt3__117__compressed_pairIPPP9GameStateRNS_9allocatorIS3_EEEC2B7v160006IDnS7_EEOT_OT0_, symObjAddr: 0x11374, symBinAddr: 0x100012A24, symSize: 0x48 }
  - { offsetInCU: 0x1859A, offset: 0x35954, size: 0x8, addend: 0x0, symName: __ZNSt3__122__compressed_pair_elemIRNS_9allocatorIPP9GameStateEELi1ELb0EEC2B7v160006IS6_vEEOT_, symObjAddr: 0x113BC, symBinAddr: 0x100012A6C, symSize: 0x70 }
  - { offsetInCU: 0x185DD, offset: 0x35997, size: 0x8, addend: 0x0, symName: __ZNSt3__19allocatorIPP9GameStateE8allocateB7v160006Em, symObjAddr: 0x1142C, symBinAddr: 0x100012ADC, symSize: 0x88 }
  - { offsetInCU: 0x1861C, offset: 0x359D6, size: 0x8, addend: 0x0, symName: __ZNSt3__116allocator_traitsINS_9allocatorIPP9GameStateEEE8max_sizeB7v160006IS5_vEEmRKS5_, symObjAddr: 0x114B4, symBinAddr: 0x100012B64, symSize: 0x24 }
  - { offsetInCU: 0x1864B, offset: 0x35A05, size: 0x8, addend: 0x0, symName: __ZNKSt3__19allocatorIPP9GameStateE8max_sizeB7v160006Ev, symObjAddr: 0x114D8, symBinAddr: 0x100012B88, symSize: 0x14 }
  - { offsetInCU: 0x18671, offset: 0x35A2B, size: 0x8, addend: 0x0, symName: __ZNSt3__122__allocator_destructorINS_9allocatorIP9GameStateEEEC2B7v160006ERS4_m, symObjAddr: 0x114EC, symBinAddr: 0x100012B9C, symSize: 0xBC }
  - { offsetInCU: 0x186B9, offset: 0x35A73, size: 0x8, addend: 0x0, symName: __ZNSt3__110unique_ptrIPP9GameStateNS_22__allocator_destructorINS_9allocatorIS2_EEEEEC2B7v160006ILb1EvEES3_NS_16__dependent_typeINS_27__unique_ptr_deleter_sfinaeIS7_EEXT_EE20__good_rval_ref_typeE, symObjAddr: 0x115A8, symBinAddr: 0x100012C58, symSize: 0x230 }
  - { offsetInCU: 0x18712, offset: 0x35ACC, size: 0x8, addend: 0x0, symName: __ZNSt3__117__compressed_pairIPP9GameStateNS_22__allocator_destructorINS_9allocatorIS2_EEEEEC1B7v160006IRS3_S7_EEOT_OT0_, symObjAddr: 0x117D8, symBinAddr: 0x100012E88, symSize: 0x3C }
  - { offsetInCU: 0x1876C, offset: 0x35B26, size: 0x8, addend: 0x0, symName: __ZNSt3__117__compressed_pairIPP9GameStateNS_22__allocator_destructorINS_9allocatorIS2_EEEEEC2B7v160006IRS3_S7_EEOT_OT0_, symObjAddr: 0x11814, symBinAddr: 0x100012EC4, symSize: 0x48 }
  - { offsetInCU: 0x187C6, offset: 0x35B80, size: 0x8, addend: 0x0, symName: __ZNSt3__122__compressed_pair_elemIPP9GameStateLi0ELb0EEC2B7v160006IRS3_vEEOT_, symObjAddr: 0x1185C, symBinAddr: 0x100012F0C, symSize: 0xB0 }
  - { offsetInCU: 0x18809, offset: 0x35BC3, size: 0x8, addend: 0x0, symName: __ZNSt3__122__compressed_pair_elemINS_22__allocator_destructorINS_9allocatorIP9GameStateEEEELi1ELb0EEC2B7v160006IS6_vEEOT_, symObjAddr: 0x1190C, symBinAddr: 0x100012FBC, symSize: 0x38 }
  - { offsetInCU: 0x1884C, offset: 0x35C06, size: 0x8, addend: 0x0, symName: __ZNKSt3__117__compressed_pairIPP9GameStateNS_22__allocator_destructorINS_9allocatorIS2_EEEEE5firstB7v160006Ev, symObjAddr: 0x11944, symBinAddr: 0x100012FF4, symSize: 0x24 }
  - { offsetInCU: 0x18872, offset: 0x35C2C, size: 0x8, addend: 0x0, symName: __ZNKSt3__122__compressed_pair_elemIPP9GameStateLi0ELb0EE5__getB7v160006Ev, symObjAddr: 0x11968, symBinAddr: 0x100013018, symSize: 0x14 }
  - { offsetInCU: 0x18898, offset: 0x35C52, size: 0x8, addend: 0x0, symName: __ZNSt3__117__compressed_pairIPP9GameStateNS_22__allocator_destructorINS_9allocatorIS2_EEEEE5firstB7v160006Ev, symObjAddr: 0x1197C, symBinAddr: 0x10001302C, symSize: 0x24 }
  - { offsetInCU: 0x188BE, offset: 0x35C78, size: 0x8, addend: 0x0, symName: __ZNSt3__122__compressed_pair_elemIPP9GameStateLi0ELb0EE5__getB7v160006Ev, symObjAddr: 0x119A0, symBinAddr: 0x100013050, symSize: 0x14 }
  - { offsetInCU: 0x188E4, offset: 0x35C9E, size: 0x8, addend: 0x0, symName: __ZNSt3__117__compressed_pairIPPP9GameStateNS_9allocatorIS3_EEE5firstB7v160006Ev, symObjAddr: 0x119B4, symBinAddr: 0x100013064, symSize: 0x24 }
  - { offsetInCU: 0x1890A, offset: 0x35CC4, size: 0x8, addend: 0x0, symName: __ZNSt3__122__compressed_pair_elemIPPP9GameStateLi0ELb0EE5__getB7v160006Ev, symObjAddr: 0x119D8, symBinAddr: 0x100013088, symSize: 0x14 }
  - { offsetInCU: 0x18930, offset: 0x35CEA, size: 0x8, addend: 0x0, symName: __ZNSt3__117__compressed_pairIPPP9GameStateRNS_9allocatorIS3_EEE5firstB7v160006Ev, symObjAddr: 0x119EC, symBinAddr: 0x10001309C, symSize: 0x24 }
  - { offsetInCU: 0x18956, offset: 0x35D10, size: 0x8, addend: 0x0, symName: __ZNSt3__110unique_ptrIPP9GameStateNS_22__allocator_destructorINS_9allocatorIS2_EEEEED2B7v160006Ev, symObjAddr: 0x11A10, symBinAddr: 0x1000130C0, symSize: 0x30 }
  - { offsetInCU: 0x18980, offset: 0x35D3A, size: 0x8, addend: 0x0, symName: __ZNSt3__110unique_ptrIPP9GameStateNS_22__allocator_destructorINS_9allocatorIS2_EEEEE5resetB7v160006ES3_, symObjAddr: 0x11A40, symBinAddr: 0x1000130F0, symSize: 0xEC }
  - { offsetInCU: 0x189C6, offset: 0x35D80, size: 0x8, addend: 0x0, symName: __ZNSt3__117__compressed_pairIPP9GameStateNS_22__allocator_destructorINS_9allocatorIS2_EEEEE6secondB7v160006Ev, symObjAddr: 0x11B2C, symBinAddr: 0x1000131DC, symSize: 0x28 }
  - { offsetInCU: 0x189EC, offset: 0x35DA6, size: 0x8, addend: 0x0, symName: __ZNSt3__122__allocator_destructorINS_9allocatorIP9GameStateEEEclB7v160006EPS3_, symObjAddr: 0x11B54, symBinAddr: 0x100013204, symSize: 0xB8 }
  - { offsetInCU: 0x18A21, offset: 0x35DDB, size: 0x8, addend: 0x0, symName: __ZNSt3__122__compressed_pair_elemINS_22__allocator_destructorINS_9allocatorIP9GameStateEEEELi1ELb0EE5__getB7v160006Ev, symObjAddr: 0x11C0C, symBinAddr: 0x1000132BC, symSize: 0x14 }
  - { offsetInCU: 0x18A47, offset: 0x35E01, size: 0x8, addend: 0x0, symName: __ZNSt3__114__split_bufferIPP9GameStateRNS_9allocatorIS3_EEED2Ev, symObjAddr: 0x11C20, symBinAddr: 0x1000132D0, symSize: 0xEC }
  - { offsetInCU: 0x18A73, offset: 0x35E2D, size: 0x8, addend: 0x0, symName: __ZNSt3__114__split_bufferIPP9GameStateRNS_9allocatorIS3_EEE5clearB7v160006Ev, symObjAddr: 0x11D0C, symBinAddr: 0x1000133BC, symSize: 0x68 }
  - { offsetInCU: 0x18A99, offset: 0x35E53, size: 0x8, addend: 0x0, symName: __ZNKSt3__114__split_bufferIPP9GameStateRNS_9allocatorIS3_EEE8capacityB7v160006Ev, symObjAddr: 0x11D74, symBinAddr: 0x100013424, symSize: 0xBC }
  - { offsetInCU: 0x18ABF, offset: 0x35E79, size: 0x8, addend: 0x0, symName: __ZNSt3__114__split_bufferIPP9GameStateRNS_9allocatorIS3_EEE17__destruct_at_endB7v160006EPS3_, symObjAddr: 0x11E30, symBinAddr: 0x1000134E0, symSize: 0x2C }
  - { offsetInCU: 0x18AF4, offset: 0x35EAE, size: 0x8, addend: 0x0, symName: __ZNSt3__114__split_bufferIPP9GameStateRNS_9allocatorIS3_EEE17__destruct_at_endB7v160006EPS3_NS_17integral_constantIbLb0EEE, symObjAddr: 0x11E5C, symBinAddr: 0x10001350C, symSize: 0x120 }
  - { offsetInCU: 0x18B36, offset: 0x35EF0, size: 0x8, addend: 0x0, symName: __ZNKSt3__114__split_bufferIPP9GameStateRNS_9allocatorIS3_EEE9__end_capB7v160006Ev, symObjAddr: 0x11F7C, symBinAddr: 0x10001362C, symSize: 0x28 }
  - { offsetInCU: 0x18B5C, offset: 0x35F16, size: 0x8, addend: 0x0, symName: __ZNKSt3__117__compressed_pairIPPP9GameStateRNS_9allocatorIS3_EEE5firstB7v160006Ev, symObjAddr: 0x11FA4, symBinAddr: 0x100013654, symSize: 0x24 }
  - { offsetInCU: 0x18B82, offset: 0x35F3C, size: 0x8, addend: 0x0, symName: __ZNSt3__19allocatorIP9GameStateE9constructB7v160006IS2_JRKS2_EEEvPT_DpOT0_, symObjAddr: 0x11FC8, symBinAddr: 0x100013678, symSize: 0xB4 }
  - { offsetInCU: 0x18BDA, offset: 0x35F94, size: 0x8, addend: 0x0, symName: __ZNSt3__112basic_stringIcNS_11char_traitsIcEENS_9allocatorIcEEEC2B7v160006IDnEEPKc, symObjAddr: 0x1207C, symBinAddr: 0x10001372C, symSize: 0x218 }
  - { offsetInCU: 0x3B, offset: 0x36131, size: 0x8, addend: 0x0, symName: _.str, symObjAddr: 0xE040, symBinAddr: 0x100048DA0, symSize: 0x0 }
  - { offsetInCU: 0x6B, offset: 0x36161, size: 0x8, addend: 0x0, symName: _.str.1, symObjAddr: 0xE080, symBinAddr: 0x100048DE0, symSize: 0x0 }
  - { offsetInCU: 0x88, offset: 0x3617E, size: 0x8, addend: 0x0, symName: _.str.2, symObjAddr: 0xE0E0, symBinAddr: 0x100048E40, symSize: 0x0 }
  - { offsetInCU: 0xA5, offset: 0x3619B, size: 0x8, addend: 0x0, symName: _.str.3, symObjAddr: 0xE120, symBinAddr: 0x100048E80, symSize: 0x0 }
  - { offsetInCU: 0xC2, offset: 0x361B8, size: 0x8, addend: 0x0, symName: _.str.4, symObjAddr: 0xE140, symBinAddr: 0x100048EA0, symSize: 0x0 }
  - { offsetInCU: 0xDF, offset: 0x361D5, size: 0x8, addend: 0x0, symName: _.str.5, symObjAddr: 0xE180, symBinAddr: 0x100048EE0, symSize: 0x0 }
  - { offsetInCU: 0xE128, offset: 0x4421E, size: 0x8, addend: 0x0, symName: __ZNSt3__111make_sharedB7v160006I7OptionsJEvEENS_10shared_ptrIT_EEDpOT0_, symObjAddr: 0xA9C, symBinAddr: 0x100014438, symSize: 0x1E0 }
  - { offsetInCU: 0xE157, offset: 0x4424D, size: 0x8, addend: 0x0, symName: __ZNSt3__111make_sharedB7v160006I5GuideJEvEENS_10shared_ptrIT_EEDpOT0_, symObjAddr: 0xED4, symBinAddr: 0x100014870, symSize: 0x1E0 }
  - { offsetInCU: 0xE186, offset: 0x4427C, size: 0x8, addend: 0x0, symName: __ZNSt3__111make_sharedB7v160006I7SettingJEvEENS_10shared_ptrIT_EEDpOT0_, symObjAddr: 0x130C, symBinAddr: 0x100014CA8, symSize: 0x1E0 }
  - { offsetInCU: 0xE1B5, offset: 0x442AB, size: 0x8, addend: 0x0, symName: __ZNSt3__118__debug_db_erase_cB7v160006INS_6vectorIN2sf6VertexENS_9allocatorIS3_EEEEEEvPT_, symObjAddr: 0x4554, symBinAddr: 0x100017D7C, symSize: 0x10 }
  - { offsetInCU: 0xE1E8, offset: 0x442DE, size: 0x8, addend: 0x0, symName: __ZNSt3__112__to_addressB7v160006IN2sf6VertexEEEPT_S4_, symObjAddr: 0x4864, symBinAddr: 0x100018080, symSize: 0x14 }
  - { offsetInCU: 0xE21F, offset: 0x44315, size: 0x8, addend: 0x0, symName: __ZNSt3__119__debug_db_insert_cB7v160006INS_6vectorIPN2sf7TextureENS_9allocatorIS4_EEEEEEvPT_, symObjAddr: 0x5648, symBinAddr: 0x10001862C, symSize: 0x10 }
  - { offsetInCU: 0xE252, offset: 0x44348, size: 0x8, addend: 0x0, symName: __ZNSt3__118__debug_db_erase_cB7v160006INS_6vectorIPN2sf7TextureENS_9allocatorIS4_EEEEEEvPT_, symObjAddr: 0x60E4, symBinAddr: 0x1000190C8, symSize: 0x10 }
  - { offsetInCU: 0xE285, offset: 0x4437B, size: 0x8, addend: 0x0, symName: __ZNSt3__112__to_addressB7v160006IPN2sf7TextureEEEPT_S5_, symObjAddr: 0x63E8, symBinAddr: 0x1000193CC, symSize: 0x14 }
  - { offsetInCU: 0xE2BC, offset: 0x443B2, size: 0x8, addend: 0x0, symName: __ZNSt3__134__libcpp_atomic_refcount_decrementB7v160006IlEET_RS1_, symObjAddr: 0x6874, symBinAddr: 0x100019858, symSize: 0x80 }
  - { offsetInCU: 0xE2F3, offset: 0x443E9, size: 0x8, addend: 0x0, symName: __ZNSt3__115allocate_sharedB7v160006I7OptionsNS_9allocatorIS1_EEJEvEENS_10shared_ptrIT_EERKT0_DpOT1_, symObjAddr: 0x6A84, symBinAddr: 0x100019A68, symSize: 0x2F8 }
  - { offsetInCU: 0xE629, offset: 0x4471F, size: 0x8, addend: 0x0, symName: __ZNSt3__14swapB7v160006IP7OptionsEEvRT_S4_, symObjAddr: 0x8480, symBinAddr: 0x10001B3E0, symSize: 0x134 }
  - { offsetInCU: 0xE67D, offset: 0x44773, size: 0x8, addend: 0x0, symName: __ZNSt3__14swapB7v160006IPNS_19__shared_weak_countEEEvRT_S4_, symObjAddr: 0x85B4, symBinAddr: 0x10001B514, symSize: 0x134 }
  - { offsetInCU: 0xE6D1, offset: 0x447C7, size: 0x8, addend: 0x0, symName: __ZNSt3__115allocate_sharedB7v160006I5GuideNS_9allocatorIS1_EEJEvEENS_10shared_ptrIT_EERKT0_DpOT1_, symObjAddr: 0x86E8, symBinAddr: 0x10001B648, symSize: 0x2F8 }
  - { offsetInCU: 0xEA07, offset: 0x44AFD, size: 0x8, addend: 0x0, symName: __ZNSt3__14swapB7v160006IP5GuideEEvRT_S4_, symObjAddr: 0x9ECC, symBinAddr: 0x10001CE2C, symSize: 0x134 }
  - { offsetInCU: 0xEA5B, offset: 0x44B51, size: 0x8, addend: 0x0, symName: __ZNSt3__115allocate_sharedB7v160006I7SettingNS_9allocatorIS1_EEJEvEENS_10shared_ptrIT_EERKT0_DpOT1_, symObjAddr: 0xA000, symBinAddr: 0x10001CF60, symSize: 0x2F8 }
  - { offsetInCU: 0xED91, offset: 0x44E87, size: 0x8, addend: 0x0, symName: __ZNSt3__14swapB7v160006IP7SettingEEvRT_S4_, symObjAddr: 0xB7E4, symBinAddr: 0x10001E744, symSize: 0x134 }
  - { offsetInCU: 0x12082, offset: 0x48178, size: 0x8, addend: 0x0, symName: __ZN9GameStateC2EPN2sf12RenderWindowE, symObjAddr: 0x0, symBinAddr: 0x1000139DC, symSize: 0x954 }
  - { offsetInCU: 0x120BF, offset: 0x481B5, size: 0x8, addend: 0x0, symName: __ZNSt3__16vectorIPN2sf7TextureENS_9allocatorIS3_EEEC1B7v160006Ev, symObjAddr: 0x954, symBinAddr: 0x100014330, symSize: 0x2C }
  - { offsetInCU: 0x120EE, offset: 0x481E4, size: 0x8, addend: 0x0, symName: __ZNSt3__110shared_ptrI7OptionsEC1B7v160006Ev, symObjAddr: 0x9C0, symBinAddr: 0x10001435C, symSize: 0x2C }
  - { offsetInCU: 0x12118, offset: 0x4820E, size: 0x8, addend: 0x0, symName: __ZNSt3__110shared_ptrI5GuideEC1B7v160006Ev, symObjAddr: 0x9EC, symBinAddr: 0x100014388, symSize: 0x2C }
  - { offsetInCU: 0x12142, offset: 0x48238, size: 0x8, addend: 0x0, symName: __ZNSt3__110shared_ptrI7SettingEC1B7v160006Ev, symObjAddr: 0xA18, symBinAddr: 0x1000143B4, symSize: 0x2C }
  - { offsetInCU: 0x1216C, offset: 0x48262, size: 0x8, addend: 0x0, symName: __ZN2sf7Vector2IiEC1Ev, symObjAddr: 0xA44, symBinAddr: 0x1000143E0, symSize: 0x2C }
  - { offsetInCU: 0x12198, offset: 0x4828E, size: 0x8, addend: 0x0, symName: __ZN2sf7Vector2IfEC1Ev, symObjAddr: 0xA70, symBinAddr: 0x10001440C, symSize: 0x2C }
  - { offsetInCU: 0x121C4, offset: 0x482BA, size: 0x8, addend: 0x0, symName: __ZNSt3__110shared_ptrI7OptionsEaSB7v160006EOS2_, symObjAddr: 0xC7C, symBinAddr: 0x100014618, symSize: 0x22C }
  - { offsetInCU: 0x121FC, offset: 0x482F2, size: 0x8, addend: 0x0, symName: __ZNSt3__110shared_ptrI7OptionsED1B7v160006Ev, symObjAddr: 0xEA8, symBinAddr: 0x100014844, symSize: 0x2C }
  - { offsetInCU: 0x12226, offset: 0x4831C, size: 0x8, addend: 0x0, symName: __ZNSt3__110shared_ptrI5GuideEaSB7v160006EOS2_, symObjAddr: 0x10B4, symBinAddr: 0x100014A50, symSize: 0x22C }
  - { offsetInCU: 0x1225E, offset: 0x48354, size: 0x8, addend: 0x0, symName: __ZNSt3__110shared_ptrI5GuideED1B7v160006Ev, symObjAddr: 0x12E0, symBinAddr: 0x100014C7C, symSize: 0x2C }
  - { offsetInCU: 0x12288, offset: 0x4837E, size: 0x8, addend: 0x0, symName: __ZNSt3__110shared_ptrI7SettingEaSB7v160006EOS2_, symObjAddr: 0x14EC, symBinAddr: 0x100014E88, symSize: 0x22C }
  - { offsetInCU: 0x122C0, offset: 0x483B6, size: 0x8, addend: 0x0, symName: __ZNSt3__110shared_ptrI7SettingED1B7v160006Ev, symObjAddr: 0x1718, symBinAddr: 0x1000150B4, symSize: 0x2C }
  - { offsetInCU: 0x122EA, offset: 0x483E0, size: 0x8, addend: 0x0, symName: __ZN2sf4TextD1Ev, symObjAddr: 0x1744, symBinAddr: 0x1000150E0, symSize: 0x2C }
  - { offsetInCU: 0x12316, offset: 0x4840C, size: 0x8, addend: 0x0, symName: __ZNSt3__16vectorIPN2sf7TextureENS_9allocatorIS3_EEED1B7v160006Ev, symObjAddr: 0x1770, symBinAddr: 0x10001510C, symSize: 0x2C }
  - { offsetInCU: 0x12340, offset: 0x48436, size: 0x8, addend: 0x0, symName: __ZN9GameStateD2Ev, symObjAddr: 0x179C, symBinAddr: 0x100015138, symSize: 0x198 }
  - { offsetInCU: 0x1236C, offset: 0x48462, size: 0x8, addend: 0x0, symName: __ZN9GameStateD1Ev, symObjAddr: 0x1934, symBinAddr: 0x1000152D0, symSize: 0x20 }
  - { offsetInCU: 0x12398, offset: 0x4848E, size: 0x8, addend: 0x0, symName: __ZN9GameStateD0Ev, symObjAddr: 0x1954, symBinAddr: 0x1000152F0, symSize: 0x18 }
  - { offsetInCU: 0x123C4, offset: 0x484BA, size: 0x8, addend: 0x0, symName: __ZN9GameState13updateOptionsEv, symObjAddr: 0x196C, symBinAddr: 0x100015308, symSize: 0xFD0 }
  - { offsetInCU: 0x123ED, offset: 0x484E3, size: 0x8, addend: 0x0, symName: __ZNKSt3__110shared_ptrI7OptionsEptB7v160006Ev, symObjAddr: 0x293C, symBinAddr: 0x1000162D8, symSize: 0x60 }
  - { offsetInCU: 0x12413, offset: 0x48509, size: 0x8, addend: 0x0, symName: __ZNKSt3__110shared_ptrI5GuideEptB7v160006Ev, symObjAddr: 0x299C, symBinAddr: 0x100016338, symSize: 0x60 }
  - { offsetInCU: 0x12439, offset: 0x4852F, size: 0x8, addend: 0x0, symName: __ZNKSt3__110shared_ptrI7SettingEptB7v160006Ev, symObjAddr: 0x29FC, symBinAddr: 0x100016398, symSize: 0x60 }
  - { offsetInCU: 0x1245F, offset: 0x48555, size: 0x8, addend: 0x0, symName: __ZN9GameState6updateERKfPN2sf12RenderWindowE, symObjAddr: 0x2A5C, symBinAddr: 0x1000163F8, symSize: 0x2C }
  - { offsetInCU: 0x124A5, offset: 0x4859B, size: 0x8, addend: 0x0, symName: __ZN9GameState8initFontERN2sf4FontENSt3__112basic_stringIcNS3_11char_traitsIcEENS3_9allocatorIcEEEE, symObjAddr: 0x2A88, symBinAddr: 0x100016424, symSize: 0x64 }
  - { offsetInCU: 0x124EC, offset: 0x485E2, size: 0x8, addend: 0x0, symName: __ZN9GameState7setTextERN2sf4TextERNS0_4FontENS0_5ColorEsssNSt3__112basic_stringIcNS6_11char_traitsIcEENS6_9allocatorIcEEEE, symObjAddr: 0x2C34, symBinAddr: 0x100016488, symSize: 0x490 }
  - { offsetInCU: 0x12589, offset: 0x4867F, size: 0x8, addend: 0x0, symName: __ZNK9GameState7getQuitEv, symObjAddr: 0x30F0, symBinAddr: 0x100016918, symSize: 0x8C }
  - { offsetInCU: 0x125B1, offset: 0x486A7, size: 0x8, addend: 0x0, symName: __ZN9GameState8endStateEv, symObjAddr: 0x317C, symBinAddr: 0x1000169A4, symSize: 0x3C }
  - { offsetInCU: 0x125D9, offset: 0x486CF, size: 0x8, addend: 0x0, symName: __ZN9GameState11checkForEndEv, symObjAddr: 0x31B8, symBinAddr: 0x1000169E0, symSize: 0xAC }
  - { offsetInCU: 0x12601, offset: 0x486F7, size: 0x8, addend: 0x0, symName: __ZN9GameState19updateMousePositionEv, symObjAddr: 0x3264, symBinAddr: 0x100016A8C, symSize: 0x6A0 }
  - { offsetInCU: 0x1262A, offset: 0x48720, size: 0x8, addend: 0x0, symName: __ZN9GameState6renderEPN2sf12RenderTargetE, symObjAddr: 0x3904, symBinAddr: 0x10001712C, symSize: 0x37C }
  - { offsetInCU: 0x12661, offset: 0x48757, size: 0x8, addend: 0x0, symName: __ZN2sf4TextD2Ev, symObjAddr: 0x3C80, symBinAddr: 0x1000174A8, symSize: 0x1A4 }
  - { offsetInCU: 0x1268D, offset: 0x48783, size: 0x8, addend: 0x0, symName: __ZThn8_N2sf4TextD1Ev, symObjAddr: 0x3E24, symBinAddr: 0x10001764C, symSize: 0x1C }
  - { offsetInCU: 0x126A3, offset: 0x48799, size: 0x8, addend: 0x0, symName: __ZN2sf11VertexArrayD1Ev, symObjAddr: 0x3E40, symBinAddr: 0x100017668, symSize: 0x2C }
  - { offsetInCU: 0x126CF, offset: 0x487C5, size: 0x8, addend: 0x0, symName: __ZN2sf8DrawableD2Ev, symObjAddr: 0x3E6C, symBinAddr: 0x100017694, symSize: 0x14 }
  - { offsetInCU: 0x126F9, offset: 0x487EF, size: 0x8, addend: 0x0, symName: __ZN2sf11VertexArrayD2Ev, symObjAddr: 0x3E80, symBinAddr: 0x1000176A8, symSize: 0xC4 }
  - { offsetInCU: 0x12725, offset: 0x4881B, size: 0x8, addend: 0x0, symName: __ZNSt3__16vectorIN2sf6VertexENS_9allocatorIS2_EEED1B7v160006Ev, symObjAddr: 0x3F44, symBinAddr: 0x10001776C, symSize: 0x2C }
  - { offsetInCU: 0x1274F, offset: 0x48845, size: 0x8, addend: 0x0, symName: __ZNSt3__16vectorIN2sf6VertexENS_9allocatorIS2_EEED2B7v160006Ev, symObjAddr: 0x3F70, symBinAddr: 0x100017798, symSize: 0x1E0 }
  - { offsetInCU: 0x1277A, offset: 0x48870, size: 0x8, addend: 0x0, symName: __ZNSt3__16vectorIN2sf6VertexENS_9allocatorIS2_EEE16__destroy_vectorC1ERS5_, symObjAddr: 0x4150, symBinAddr: 0x100017978, symSize: 0x34 }
  - { offsetInCU: 0x127B4, offset: 0x488AA, size: 0x8, addend: 0x0, symName: __ZNSt3__16vectorIN2sf6VertexENS_9allocatorIS2_EEE16__destroy_vectorclB7v160006Ev, symObjAddr: 0x4184, symBinAddr: 0x1000179AC, symSize: 0x264 }
  - { offsetInCU: 0x127DA, offset: 0x488D0, size: 0x8, addend: 0x0, symName: __ZNSt3__16vectorIN2sf6VertexENS_9allocatorIS2_EEE16__destroy_vectorC2ERS5_, symObjAddr: 0x43E8, symBinAddr: 0x100017C10, symSize: 0x70 }
  - { offsetInCU: 0x12814, offset: 0x4890A, size: 0x8, addend: 0x0, symName: __ZNKSt3__16vectorIN2sf6VertexENS_9allocatorIS2_EEE17__annotate_deleteB7v160006Ev, symObjAddr: 0x4458, symBinAddr: 0x100017C80, symSize: 0xFC }
  - { offsetInCU: 0x1283A, offset: 0x48930, size: 0x8, addend: 0x0, symName: __ZNSt3__16vectorIN2sf6VertexENS_9allocatorIS2_EEE7__clearB7v160006Ev, symObjAddr: 0x4564, symBinAddr: 0x100017D8C, symSize: 0x64 }
  - { offsetInCU: 0x12860, offset: 0x48956, size: 0x8, addend: 0x0, symName: __ZNSt3__116allocator_traitsINS_9allocatorIN2sf6VertexEEEE10deallocateB7v160006ERS4_PS3_m, symObjAddr: 0x45C8, symBinAddr: 0x100017DF0, symSize: 0x34 }
  - { offsetInCU: 0x128A5, offset: 0x4899B, size: 0x8, addend: 0x0, symName: __ZNSt3__16vectorIN2sf6VertexENS_9allocatorIS2_EEE7__allocB7v160006Ev, symObjAddr: 0x45FC, symBinAddr: 0x100017E24, symSize: 0x28 }
  - { offsetInCU: 0x128CB, offset: 0x489C1, size: 0x8, addend: 0x0, symName: __ZNKSt3__16vectorIN2sf6VertexENS_9allocatorIS2_EEE8capacityB7v160006Ev, symObjAddr: 0x4624, symBinAddr: 0x100017E4C, symSize: 0xBC }
  - { offsetInCU: 0x128F1, offset: 0x489E7, size: 0x8, addend: 0x0, symName: __ZNKSt3__16vectorIN2sf6VertexENS_9allocatorIS2_EEE31__annotate_contiguous_containerEPKvS7_S7_S7_, symObjAddr: 0x46E0, symBinAddr: 0x100017F08, symSize: 0x64 }
  - { offsetInCU: 0x12957, offset: 0x48A4D, size: 0x8, addend: 0x0, symName: __ZNKSt3__16vectorIN2sf6VertexENS_9allocatorIS2_EEE4dataB7v160006Ev, symObjAddr: 0x4744, symBinAddr: 0x100017F6C, symSize: 0x64 }
  - { offsetInCU: 0x1297D, offset: 0x48A73, size: 0x8, addend: 0x0, symName: __ZNKSt3__16vectorIN2sf6VertexENS_9allocatorIS2_EEE4sizeB7v160006Ev, symObjAddr: 0x47A8, symBinAddr: 0x100017FD0, symSize: 0xB0 }
  - { offsetInCU: 0x129A3, offset: 0x48A99, size: 0x8, addend: 0x0, symName: __ZNSt3__16vectorIN2sf6VertexENS_9allocatorIS2_EEE22__base_destruct_at_endB7v160006EPS2_, symObjAddr: 0x4878, symBinAddr: 0x100018094, symSize: 0x128 }
  - { offsetInCU: 0x129E9, offset: 0x48ADF, size: 0x8, addend: 0x0, symName: __ZNSt3__116allocator_traitsINS_9allocatorIN2sf6VertexEEEE7destroyB7v160006IS3_vEEvRS4_PT_, symObjAddr: 0x49A0, symBinAddr: 0x1000181BC, symSize: 0x2C }
  - { offsetInCU: 0x12A28, offset: 0x48B1E, size: 0x8, addend: 0x0, symName: __ZNSt3__19allocatorIN2sf6VertexEE7destroyB7v160006EPS2_, symObjAddr: 0x49CC, symBinAddr: 0x1000181E8, symSize: 0x14 }
  - { offsetInCU: 0x12A5D, offset: 0x48B53, size: 0x8, addend: 0x0, symName: __ZNSt3__19allocatorIN2sf6VertexEE10deallocateB7v160006EPS2_m, symObjAddr: 0x49E0, symBinAddr: 0x1000181FC, symSize: 0x80 }
  - { offsetInCU: 0x12AA1, offset: 0x48B97, size: 0x8, addend: 0x0, symName: __ZNSt3__117__compressed_pairIPN2sf6VertexENS_9allocatorIS2_EEE6secondB7v160006Ev, symObjAddr: 0x4ADC, symBinAddr: 0x10001827C, symSize: 0x24 }
  - { offsetInCU: 0x12AC7, offset: 0x48BBD, size: 0x8, addend: 0x0, symName: __ZNSt3__122__compressed_pair_elemINS_9allocatorIN2sf6VertexEEELi1ELb1EE5__getB7v160006Ev, symObjAddr: 0x4B00, symBinAddr: 0x1000182A0, symSize: 0x14 }
  - { offsetInCU: 0x12AED, offset: 0x48BE3, size: 0x8, addend: 0x0, symName: __ZNKSt3__16vectorIN2sf6VertexENS_9allocatorIS2_EEE9__end_capB7v160006Ev, symObjAddr: 0x4B14, symBinAddr: 0x1000182B4, symSize: 0x28 }
  - { offsetInCU: 0x12B13, offset: 0x48C09, size: 0x8, addend: 0x0, symName: __ZNKSt3__117__compressed_pairIPN2sf6VertexENS_9allocatorIS2_EEE5firstB7v160006Ev, symObjAddr: 0x4B3C, symBinAddr: 0x1000182DC, symSize: 0x24 }
  - { offsetInCU: 0x12B39, offset: 0x48C2F, size: 0x8, addend: 0x0, symName: __ZNKSt3__122__compressed_pair_elemIPN2sf6VertexELi0ELb0EE5__getB7v160006Ev, symObjAddr: 0x4B60, symBinAddr: 0x100018300, symSize: 0x14 }
  - { offsetInCU: 0x12B64, offset: 0x48C5A, size: 0x8, addend: 0x0, symName: __ZNSt3__16vectorIPN2sf7TextureENS_9allocatorIS3_EEEC2B7v160006Ev, symObjAddr: 0x5330, symBinAddr: 0x100018314, symSize: 0x2DC }
  - { offsetInCU: 0x12B94, offset: 0x48C8A, size: 0x8, addend: 0x0, symName: __ZNSt3__117__compressed_pairIPPN2sf7TextureENS_9allocatorIS3_EEEC1B7v160006IDnNS_18__default_init_tagEEEOT_OT0_, symObjAddr: 0x560C, symBinAddr: 0x1000185F0, symSize: 0x3C }
  - { offsetInCU: 0x12BEE, offset: 0x48CE4, size: 0x8, addend: 0x0, symName: __ZNSt3__117__compressed_pairIPPN2sf7TextureENS_9allocatorIS3_EEEC2B7v160006IDnNS_18__default_init_tagEEEOT_OT0_, symObjAddr: 0x5658, symBinAddr: 0x10001863C, symSize: 0x40 }
  - { offsetInCU: 0x12C48, offset: 0x48D3E, size: 0x8, addend: 0x0, symName: __ZNSt3__122__compressed_pair_elemIPPN2sf7TextureELi0ELb0EEC2B7v160006IDnvEEOT_, symObjAddr: 0x5698, symBinAddr: 0x10001867C, symSize: 0x64 }
  - { offsetInCU: 0x12C8B, offset: 0x48D81, size: 0x8, addend: 0x0, symName: __ZNSt3__122__compressed_pair_elemINS_9allocatorIPN2sf7TextureEEELi1ELb1EEC2B7v160006ENS_18__default_init_tagE, symObjAddr: 0x56FC, symBinAddr: 0x1000186E0, symSize: 0x2C }
  - { offsetInCU: 0x12CC0, offset: 0x48DB6, size: 0x8, addend: 0x0, symName: __ZNSt3__19allocatorIPN2sf7TextureEEC2B7v160006Ev, symObjAddr: 0x5728, symBinAddr: 0x10001870C, symSize: 0x2C }
  - { offsetInCU: 0x12CEA, offset: 0x48DE0, size: 0x8, addend: 0x0, symName: __ZNSt3__116__non_trivial_ifILb1ENS_9allocatorIPN2sf7TextureEEEEC2B7v160006Ev, symObjAddr: 0x5754, symBinAddr: 0x100018738, symSize: 0x14 }
  - { offsetInCU: 0x12D14, offset: 0x48E0A, size: 0x8, addend: 0x0, symName: __ZNSt3__110shared_ptrI7OptionsEC2B7v160006Ev, symObjAddr: 0x5768, symBinAddr: 0x10001874C, symSize: 0x9C }
  - { offsetInCU: 0x12D3E, offset: 0x48E34, size: 0x8, addend: 0x0, symName: __ZNSt3__110shared_ptrI5GuideEC2B7v160006Ev, symObjAddr: 0x5804, symBinAddr: 0x1000187E8, symSize: 0x9C }
  - { offsetInCU: 0x12D68, offset: 0x48E5E, size: 0x8, addend: 0x0, symName: __ZNSt3__110shared_ptrI7SettingEC2B7v160006Ev, symObjAddr: 0x58A0, symBinAddr: 0x100018884, symSize: 0x9C }
  - { offsetInCU: 0x12D92, offset: 0x48E88, size: 0x8, addend: 0x0, symName: __ZN2sf7Vector2IiEC2Ev, symObjAddr: 0x593C, symBinAddr: 0x100018920, symSize: 0xEC }
  - { offsetInCU: 0x12DBE, offset: 0x48EB4, size: 0x8, addend: 0x0, symName: __ZN2sf7Vector2IfEC2Ev, symObjAddr: 0x5A28, symBinAddr: 0x100018A0C, symSize: 0xF4 }
  - { offsetInCU: 0x12DEA, offset: 0x48EE0, size: 0x8, addend: 0x0, symName: __ZNSt3__16vectorIPN2sf7TextureENS_9allocatorIS3_EEED2B7v160006Ev, symObjAddr: 0x5B1C, symBinAddr: 0x100018B00, symSize: 0x1E0 }
  - { offsetInCU: 0x12E15, offset: 0x48F0B, size: 0x8, addend: 0x0, symName: __ZNSt3__16vectorIPN2sf7TextureENS_9allocatorIS3_EEE16__destroy_vectorC1ERS6_, symObjAddr: 0x5CFC, symBinAddr: 0x100018CE0, symSize: 0x34 }
  - { offsetInCU: 0x12E4F, offset: 0x48F45, size: 0x8, addend: 0x0, symName: __ZNSt3__16vectorIPN2sf7TextureENS_9allocatorIS3_EEE16__destroy_vectorclB7v160006Ev, symObjAddr: 0x5D30, symBinAddr: 0x100018D14, symSize: 0x264 }
  - { offsetInCU: 0x12E75, offset: 0x48F6B, size: 0x8, addend: 0x0, symName: __ZNSt3__16vectorIPN2sf7TextureENS_9allocatorIS3_EEE16__destroy_vectorC2ERS6_, symObjAddr: 0x5F94, symBinAddr: 0x100018F78, symSize: 0x70 }
  - { offsetInCU: 0x12EAF, offset: 0x48FA5, size: 0x8, addend: 0x0, symName: __ZNKSt3__16vectorIPN2sf7TextureENS_9allocatorIS3_EEE17__annotate_deleteB7v160006Ev, symObjAddr: 0x6004, symBinAddr: 0x100018FE8, symSize: 0xE0 }
  - { offsetInCU: 0x12ED5, offset: 0x48FCB, size: 0x8, addend: 0x0, symName: __ZNSt3__16vectorIPN2sf7TextureENS_9allocatorIS3_EEE7__clearB7v160006Ev, symObjAddr: 0x60F4, symBinAddr: 0x1000190D8, symSize: 0x64 }
  - { offsetInCU: 0x12EFB, offset: 0x48FF1, size: 0x8, addend: 0x0, symName: __ZNSt3__116allocator_traitsINS_9allocatorIPN2sf7TextureEEEE10deallocateB7v160006ERS5_PS4_m, symObjAddr: 0x6158, symBinAddr: 0x10001913C, symSize: 0x34 }
  - { offsetInCU: 0x12F40, offset: 0x49036, size: 0x8, addend: 0x0, symName: __ZNSt3__16vectorIPN2sf7TextureENS_9allocatorIS3_EEE7__allocB7v160006Ev, symObjAddr: 0x618C, symBinAddr: 0x100019170, symSize: 0x28 }
  - { offsetInCU: 0x12F66, offset: 0x4905C, size: 0x8, addend: 0x0, symName: __ZNKSt3__16vectorIPN2sf7TextureENS_9allocatorIS3_EEE8capacityB7v160006Ev, symObjAddr: 0x61B4, symBinAddr: 0x100019198, symSize: 0xBC }
  - { offsetInCU: 0x12F8C, offset: 0x49082, size: 0x8, addend: 0x0, symName: __ZNKSt3__16vectorIPN2sf7TextureENS_9allocatorIS3_EEE31__annotate_contiguous_containerEPKvS8_S8_S8_, symObjAddr: 0x6270, symBinAddr: 0x100019254, symSize: 0x64 }
  - { offsetInCU: 0x12FF2, offset: 0x490E8, size: 0x8, addend: 0x0, symName: __ZNKSt3__16vectorIPN2sf7TextureENS_9allocatorIS3_EEE4dataB7v160006Ev, symObjAddr: 0x62D4, symBinAddr: 0x1000192B8, symSize: 0x64 }
  - { offsetInCU: 0x13018, offset: 0x4910E, size: 0x8, addend: 0x0, symName: __ZNKSt3__16vectorIPN2sf7TextureENS_9allocatorIS3_EEE4sizeB7v160006Ev, symObjAddr: 0x6338, symBinAddr: 0x10001931C, symSize: 0xB0 }
  - { offsetInCU: 0x1303E, offset: 0x49134, size: 0x8, addend: 0x0, symName: __ZNSt3__16vectorIPN2sf7TextureENS_9allocatorIS3_EEE22__base_destruct_at_endB7v160006EPS3_, symObjAddr: 0x63FC, symBinAddr: 0x1000193E0, symSize: 0x128 }
  - { offsetInCU: 0x13084, offset: 0x4917A, size: 0x8, addend: 0x0, symName: __ZNSt3__116allocator_traitsINS_9allocatorIPN2sf7TextureEEEE7destroyB7v160006IS4_vEEvRS5_PT_, symObjAddr: 0x6524, symBinAddr: 0x100019508, symSize: 0x2C }
  - { offsetInCU: 0x130C3, offset: 0x491B9, size: 0x8, addend: 0x0, symName: __ZNSt3__19allocatorIPN2sf7TextureEE7destroyB7v160006EPS3_, symObjAddr: 0x6550, symBinAddr: 0x100019534, symSize: 0x14 }
  - { offsetInCU: 0x130F8, offset: 0x491EE, size: 0x8, addend: 0x0, symName: __ZNSt3__19allocatorIPN2sf7TextureEE10deallocateB7v160006EPS3_m, symObjAddr: 0x6564, symBinAddr: 0x100019548, symSize: 0x7C }
  - { offsetInCU: 0x1313C, offset: 0x49232, size: 0x8, addend: 0x0, symName: __ZNSt3__117__compressed_pairIPPN2sf7TextureENS_9allocatorIS3_EEE6secondB7v160006Ev, symObjAddr: 0x65E0, symBinAddr: 0x1000195C4, symSize: 0x24 }
  - { offsetInCU: 0x13162, offset: 0x49258, size: 0x8, addend: 0x0, symName: __ZNSt3__122__compressed_pair_elemINS_9allocatorIPN2sf7TextureEEELi1ELb1EE5__getB7v160006Ev, symObjAddr: 0x6604, symBinAddr: 0x1000195E8, symSize: 0x14 }
  - { offsetInCU: 0x13188, offset: 0x4927E, size: 0x8, addend: 0x0, symName: __ZNKSt3__16vectorIPN2sf7TextureENS_9allocatorIS3_EEE9__end_capB7v160006Ev, symObjAddr: 0x6618, symBinAddr: 0x1000195FC, symSize: 0x28 }
  - { offsetInCU: 0x131AE, offset: 0x492A4, size: 0x8, addend: 0x0, symName: __ZNKSt3__117__compressed_pairIPPN2sf7TextureENS_9allocatorIS3_EEE5firstB7v160006Ev, symObjAddr: 0x6640, symBinAddr: 0x100019624, symSize: 0x24 }
  - { offsetInCU: 0x131D4, offset: 0x492CA, size: 0x8, addend: 0x0, symName: __ZNKSt3__122__compressed_pair_elemIPPN2sf7TextureELi0ELb0EE5__getB7v160006Ev, symObjAddr: 0x6664, symBinAddr: 0x100019648, symSize: 0x14 }
  - { offsetInCU: 0x131FA, offset: 0x492F0, size: 0x8, addend: 0x0, symName: __ZNSt3__110shared_ptrI7OptionsED2B7v160006Ev, symObjAddr: 0x6678, symBinAddr: 0x10001965C, symSize: 0xC8 }
  - { offsetInCU: 0x13224, offset: 0x4931A, size: 0x8, addend: 0x0, symName: __ZNSt3__119__shared_weak_count16__release_sharedB7v160006Ev, symObjAddr: 0x6740, symBinAddr: 0x100019724, symSize: 0x3C }
  - { offsetInCU: 0x1324A, offset: 0x49340, size: 0x8, addend: 0x0, symName: __ZNSt3__114__shared_count16__release_sharedB7v160006Ev, symObjAddr: 0x677C, symBinAddr: 0x100019760, symSize: 0xF8 }
  - { offsetInCU: 0x13270, offset: 0x49366, size: 0x8, addend: 0x0, symName: __ZNSt3__110shared_ptrI5GuideED2B7v160006Ev, symObjAddr: 0x68F4, symBinAddr: 0x1000198D8, symSize: 0xC8 }
  - { offsetInCU: 0x1329A, offset: 0x49390, size: 0x8, addend: 0x0, symName: __ZNSt3__110shared_ptrI7SettingED2B7v160006Ev, symObjAddr: 0x69BC, symBinAddr: 0x1000199A0, symSize: 0xC8 }
  - { offsetInCU: 0x132C4, offset: 0x493BA, size: 0x8, addend: 0x0, symName: __ZNSt3__19allocatorI7OptionsEC1B7v160006Ev, symObjAddr: 0x6D7C, symBinAddr: 0x100019D60, symSize: 0x2C }
  - { offsetInCU: 0x1332A, offset: 0x49420, size: 0x8, addend: 0x0, symName: __ZNSt3__118__allocation_guardINS_9allocatorINS_20__shared_ptr_emplaceI7OptionsNS1_IS3_EEEEEEEC1B7v160006IS4_EET_m, symObjAddr: 0x6DA8, symBinAddr: 0x100019D8C, symSize: 0x34 }
  - { offsetInCU: 0x1337B, offset: 0x49471, size: 0x8, addend: 0x0, symName: __ZNKSt3__118__allocation_guardINS_9allocatorINS_20__shared_ptr_emplaceI7OptionsNS1_IS3_EEEEEEE5__getB7v160006Ev, symObjAddr: 0x6DDC, symBinAddr: 0x100019DC0, symSize: 0x64 }
  - { offsetInCU: 0x133A1, offset: 0x49497, size: 0x8, addend: 0x0, symName: __ZNSt3__120__shared_ptr_emplaceI7OptionsNS_9allocatorIS1_EEEC1B7v160006IJEEES3_DpOT_, symObjAddr: 0x6E40, symBinAddr: 0x100019E24, symSize: 0x2C }
  - { offsetInCU: 0x133E1, offset: 0x494D7, size: 0x8, addend: 0x0, symName: __ZNSt3__118__allocation_guardINS_9allocatorINS_20__shared_ptr_emplaceI7OptionsNS1_IS3_EEEEEEE13__release_ptrB7v160006Ev, symObjAddr: 0x6E6C, symBinAddr: 0x100019E50, symSize: 0xA8 }
  - { offsetInCU: 0x13415, offset: 0x4950B, size: 0x8, addend: 0x0, symName: __ZNSt3__110shared_ptrI7OptionsE27__create_with_control_blockB7v160006IS1_NS_20__shared_ptr_emplaceIS1_NS_9allocatorIS1_EEEEEES2_PT_PT0_, symObjAddr: 0x6F14, symBinAddr: 0x100019EF8, symSize: 0x1B0 }
  - { offsetInCU: 0x1346D, offset: 0x49563, size: 0x8, addend: 0x0, symName: __ZNSt3__120__shared_ptr_emplaceI7OptionsNS_9allocatorIS1_EEE10__get_elemB7v160006Ev, symObjAddr: 0x70C4, symBinAddr: 0x10001A0A8, symSize: 0x28 }
  - { offsetInCU: 0x13493, offset: 0x49589, size: 0x8, addend: 0x0, symName: __ZNSt3__118__allocation_guardINS_9allocatorINS_20__shared_ptr_emplaceI7OptionsNS1_IS3_EEEEEEED1B7v160006Ev, symObjAddr: 0x70EC, symBinAddr: 0x10001A0D0, symSize: 0x2C }
  - { offsetInCU: 0x134BD, offset: 0x495B3, size: 0x8, addend: 0x0, symName: __ZNSt3__118__allocation_guardINS_9allocatorINS_20__shared_ptr_emplaceI7OptionsNS1_IS3_EEEEEEEC2B7v160006IS4_EET_m, symObjAddr: 0x7118, symBinAddr: 0x10001A0FC, symSize: 0x28C }
  - { offsetInCU: 0x13514, offset: 0x4960A, size: 0x8, addend: 0x0, symName: __ZNSt3__19allocatorINS_20__shared_ptr_emplaceI7OptionsNS0_IS2_EEEEEC1B7v160006IS2_EERKNS0_IT_EE, symObjAddr: 0x73A4, symBinAddr: 0x10001A388, symSize: 0x34 }
  - { offsetInCU: 0x13552, offset: 0x49648, size: 0x8, addend: 0x0, symName: __ZNSt3__116allocator_traitsINS_9allocatorINS_20__shared_ptr_emplaceI7OptionsNS1_IS3_EEEEEEE8allocateB7v160006ERS6_m, symObjAddr: 0x73D8, symBinAddr: 0x10001A3BC, symSize: 0x2C }
  - { offsetInCU: 0x13587, offset: 0x4967D, size: 0x8, addend: 0x0, symName: __ZNSt3__19allocatorINS_20__shared_ptr_emplaceI7OptionsNS0_IS2_EEEEEC2B7v160006IS2_EERKNS0_IT_EE, symObjAddr: 0x7404, symBinAddr: 0x10001A3E8, symSize: 0x30 }
  - { offsetInCU: 0x135C5, offset: 0x496BB, size: 0x8, addend: 0x0, symName: __ZNSt3__116__non_trivial_ifILb1ENS_9allocatorINS_20__shared_ptr_emplaceI7OptionsNS1_IS3_EEEEEEEC2B7v160006Ev, symObjAddr: 0x7434, symBinAddr: 0x10001A418, symSize: 0x14 }
  - { offsetInCU: 0x135EF, offset: 0x496E5, size: 0x8, addend: 0x0, symName: __ZNSt3__19allocatorINS_20__shared_ptr_emplaceI7OptionsNS0_IS2_EEEEE8allocateB7v160006Em, symObjAddr: 0x7448, symBinAddr: 0x10001A42C, symSize: 0x90 }
  - { offsetInCU: 0x1362E, offset: 0x49724, size: 0x8, addend: 0x0, symName: __ZNSt3__116allocator_traitsINS_9allocatorINS_20__shared_ptr_emplaceI7OptionsNS1_IS3_EEEEEEE8max_sizeB7v160006IS6_vEEmRKS6_, symObjAddr: 0x74D8, symBinAddr: 0x10001A4BC, symSize: 0x24 }
  - { offsetInCU: 0x1365D, offset: 0x49753, size: 0x8, addend: 0x0, symName: __ZNKSt3__19allocatorINS_20__shared_ptr_emplaceI7OptionsNS0_IS2_EEEEE8max_sizeB7v160006Ev, symObjAddr: 0x755C, symBinAddr: 0x10001A4E0, symSize: 0x20 }
  - { offsetInCU: 0x13683, offset: 0x49779, size: 0x8, addend: 0x0, symName: __ZNSt3__120__shared_ptr_emplaceI7OptionsNS_9allocatorIS1_EEEC2B7v160006IJEEES3_DpOT_, symObjAddr: 0x75A0, symBinAddr: 0x10001A500, symSize: 0x2F4 }
  - { offsetInCU: 0x136C8, offset: 0x497BE, size: 0x8, addend: 0x0, symName: __ZNSt3__119__shared_weak_countC2B7v160006El, symObjAddr: 0x7894, symBinAddr: 0x10001A7F4, symSize: 0xD0 }
  - { offsetInCU: 0x13701, offset: 0x497F7, size: 0x8, addend: 0x0, symName: __ZNSt3__120__shared_ptr_emplaceI7OptionsNS_9allocatorIS1_EEE8_StorageC1B7v160006EOS3_, symObjAddr: 0x7964, symBinAddr: 0x10001A8C4, symSize: 0x34 }
  - { offsetInCU: 0x1373B, offset: 0x49831, size: 0x8, addend: 0x0, symName: __ZNSt3__120__shared_ptr_emplaceI7OptionsNS_9allocatorIS1_EEE8_StorageD1B7v160006Ev, symObjAddr: 0x7998, symBinAddr: 0x10001A8F8, symSize: 0x2C }
  - { offsetInCU: 0x13765, offset: 0x4985B, size: 0x8, addend: 0x0, symName: __ZNSt3__120__shared_ptr_emplaceI7OptionsNS_9allocatorIS1_EEED1Ev, symObjAddr: 0x79C4, symBinAddr: 0x10001A924, symSize: 0x2C }
  - { offsetInCU: 0x13792, offset: 0x49888, size: 0x8, addend: 0x0, symName: __ZNSt3__120__shared_ptr_emplaceI7OptionsNS_9allocatorIS1_EEED0Ev, symObjAddr: 0x79F0, symBinAddr: 0x10001A950, symSize: 0x58 }
  - { offsetInCU: 0x137BF, offset: 0x498B5, size: 0x8, addend: 0x0, symName: __ZNSt3__120__shared_ptr_emplaceI7OptionsNS_9allocatorIS1_EEE16__on_zero_sharedEv, symObjAddr: 0x7A48, symBinAddr: 0x10001A9A8, symSize: 0xD4 }
  - { offsetInCU: 0x137E5, offset: 0x498DB, size: 0x8, addend: 0x0, symName: __ZNSt3__120__shared_ptr_emplaceI7OptionsNS_9allocatorIS1_EEE21__on_zero_shared_weakEv, symObjAddr: 0x7B1C, symBinAddr: 0x10001AA7C, symSize: 0x240 }
  - { offsetInCU: 0x1382C, offset: 0x49922, size: 0x8, addend: 0x0, symName: __ZNSt3__114__shared_countC2B7v160006El, symObjAddr: 0x7D5C, symBinAddr: 0x10001ACBC, symSize: 0xC0 }
  - { offsetInCU: 0x13865, offset: 0x4995B, size: 0x8, addend: 0x0, symName: __ZNSt3__120__shared_ptr_emplaceI7OptionsNS_9allocatorIS1_EEE8_StorageC2B7v160006EOS3_, symObjAddr: 0x7E1C, symBinAddr: 0x10001AD7C, symSize: 0x30 }
  - { offsetInCU: 0x1389F, offset: 0x49995, size: 0x8, addend: 0x0, symName: __ZNSt3__120__shared_ptr_emplaceI7OptionsNS_9allocatorIS1_EEE8_Storage11__get_allocEv, symObjAddr: 0x7E4C, symBinAddr: 0x10001ADAC, symSize: 0x3C }
  - { offsetInCU: 0x138F5, offset: 0x499EB, size: 0x8, addend: 0x0, symName: __ZNSt3__117__compressed_pairINS_9allocatorI7OptionsEES2_E16__get_first_baseB7v160006EPS4_, symObjAddr: 0x7E88, symBinAddr: 0x10001ADE8, symSize: 0x14 }
  - { offsetInCU: 0x13919, offset: 0x49A0F, size: 0x8, addend: 0x0, symName: __ZNSt3__120__shared_ptr_emplaceI7OptionsNS_9allocatorIS1_EEE8_StorageD2B7v160006Ev, symObjAddr: 0x7E9C, symBinAddr: 0x10001ADFC, symSize: 0x2C }
  - { offsetInCU: 0x13943, offset: 0x49A39, size: 0x8, addend: 0x0, symName: __ZNSt3__120__shared_ptr_emplaceI7OptionsNS_9allocatorIS1_EEED2Ev, symObjAddr: 0x7EC8, symBinAddr: 0x10001AE28, symSize: 0xC4 }
  - { offsetInCU: 0x13970, offset: 0x49A66, size: 0x8, addend: 0x0, symName: __ZNSt3__120__shared_ptr_emplaceI7OptionsNS_9allocatorIS1_EEE11__get_allocB7v160006Ev, symObjAddr: 0x7F8C, symBinAddr: 0x10001AEEC, symSize: 0x28 }
  - { offsetInCU: 0x13996, offset: 0x49A8C, size: 0x8, addend: 0x0, symName: __ZNSt3__116allocator_traitsINS_9allocatorINS_20__shared_ptr_emplaceI7OptionsNS1_IS3_EEEEEEE10deallocateB7v160006ERS6_PS5_m, symObjAddr: 0x7FB4, symBinAddr: 0x10001AF14, symSize: 0x34 }
  - { offsetInCU: 0x139DB, offset: 0x49AD1, size: 0x8, addend: 0x0, symName: __ZNSt3__114pointer_traitsIPNS_20__shared_ptr_emplaceI7OptionsNS_9allocatorIS2_EEEEE10pointer_toB7v160006ERS5_, symObjAddr: 0x7FE8, symBinAddr: 0x10001AF48, symSize: 0x14 }
  - { offsetInCU: 0x139FF, offset: 0x49AF5, size: 0x8, addend: 0x0, symName: __ZNSt3__19allocatorINS_20__shared_ptr_emplaceI7OptionsNS0_IS2_EEEEE10deallocateB7v160006EPS4_m, symObjAddr: 0x7FFC, symBinAddr: 0x10001AF5C, symSize: 0x80 }
  - { offsetInCU: 0x13A43, offset: 0x49B39, size: 0x8, addend: 0x0, symName: __ZNSt3__110shared_ptrI7OptionsE18__enable_weak_thisB7v160006Ez, symObjAddr: 0x807C, symBinAddr: 0x10001AFDC, symSize: 0x10 }
  - { offsetInCU: 0x13A6A, offset: 0x49B60, size: 0x8, addend: 0x0, symName: __ZNSt3__120__shared_ptr_emplaceI7OptionsNS_9allocatorIS1_EEE8_Storage10__get_elemEv, symObjAddr: 0x808C, symBinAddr: 0x10001AFEC, symSize: 0x3C }
  - { offsetInCU: 0x13AC0, offset: 0x49BB6, size: 0x8, addend: 0x0, symName: __ZNSt3__117__compressed_pairINS_9allocatorI7OptionsEES2_E17__get_second_baseB7v160006EPS4_, symObjAddr: 0x80C8, symBinAddr: 0x10001B028, symSize: 0x14 }
  - { offsetInCU: 0x13AE4, offset: 0x49BDA, size: 0x8, addend: 0x0, symName: __ZNSt3__118__allocation_guardINS_9allocatorINS_20__shared_ptr_emplaceI7OptionsNS1_IS3_EEEEEEED2B7v160006Ev, symObjAddr: 0x80DC, symBinAddr: 0x10001B03C, symSize: 0x108 }
  - { offsetInCU: 0x13B0E, offset: 0x49C04, size: 0x8, addend: 0x0, symName: __ZNSt3__19allocatorI7OptionsEC2B7v160006Ev, symObjAddr: 0x81E4, symBinAddr: 0x10001B144, symSize: 0x2C }
  - { offsetInCU: 0x13B38, offset: 0x49C2E, size: 0x8, addend: 0x0, symName: __ZNSt3__116__non_trivial_ifILb1ENS_9allocatorI7OptionsEEEC2B7v160006Ev, symObjAddr: 0x8210, symBinAddr: 0x10001B170, symSize: 0x14 }
  - { offsetInCU: 0x13B62, offset: 0x49C58, size: 0x8, addend: 0x0, symName: __ZNSt3__110shared_ptrI7OptionsEC1B7v160006EOS2_, symObjAddr: 0x8224, symBinAddr: 0x10001B184, symSize: 0x34 }
  - { offsetInCU: 0x13B9C, offset: 0x49C92, size: 0x8, addend: 0x0, symName: __ZNSt3__110shared_ptrI7OptionsE4swapB7v160006ERS2_, symObjAddr: 0x8258, symBinAddr: 0x10001B1B8, symSize: 0x70 }
  - { offsetInCU: 0x13BD2, offset: 0x49CC8, size: 0x8, addend: 0x0, symName: __ZNSt3__110shared_ptrI7OptionsEC2B7v160006EOS2_, symObjAddr: 0x82C8, symBinAddr: 0x10001B228, symSize: 0x1B8 }
  - { offsetInCU: 0x13C0C, offset: 0x49D02, size: 0x8, addend: 0x0, symName: __ZNSt3__19allocatorI5GuideEC1B7v160006Ev, symObjAddr: 0x89E0, symBinAddr: 0x10001B940, symSize: 0x2C }
  - { offsetInCU: 0x13C72, offset: 0x49D68, size: 0x8, addend: 0x0, symName: __ZNSt3__118__allocation_guardINS_9allocatorINS_20__shared_ptr_emplaceI5GuideNS1_IS3_EEEEEEEC1B7v160006IS4_EET_m, symObjAddr: 0x8A0C, symBinAddr: 0x10001B96C, symSize: 0x34 }
  - { offsetInCU: 0x13CC3, offset: 0x49DB9, size: 0x8, addend: 0x0, symName: __ZNKSt3__118__allocation_guardINS_9allocatorINS_20__shared_ptr_emplaceI5GuideNS1_IS3_EEEEEEE5__getB7v160006Ev, symObjAddr: 0x8A40, symBinAddr: 0x10001B9A0, symSize: 0x64 }
  - { offsetInCU: 0x13CE9, offset: 0x49DDF, size: 0x8, addend: 0x0, symName: __ZNSt3__120__shared_ptr_emplaceI5GuideNS_9allocatorIS1_EEEC1B7v160006IJEEES3_DpOT_, symObjAddr: 0x8AA4, symBinAddr: 0x10001BA04, symSize: 0x2C }
  - { offsetInCU: 0x13D29, offset: 0x49E1F, size: 0x8, addend: 0x0, symName: __ZNSt3__118__allocation_guardINS_9allocatorINS_20__shared_ptr_emplaceI5GuideNS1_IS3_EEEEEEE13__release_ptrB7v160006Ev, symObjAddr: 0x8AD0, symBinAddr: 0x10001BA30, symSize: 0xA8 }
  - { offsetInCU: 0x13D5D, offset: 0x49E53, size: 0x8, addend: 0x0, symName: __ZNSt3__110shared_ptrI5GuideE27__create_with_control_blockB7v160006IS1_NS_20__shared_ptr_emplaceIS1_NS_9allocatorIS1_EEEEEES2_PT_PT0_, symObjAddr: 0x8B78, symBinAddr: 0x10001BAD8, symSize: 0x1B0 }
  - { offsetInCU: 0x13DB5, offset: 0x49EAB, size: 0x8, addend: 0x0, symName: __ZNSt3__120__shared_ptr_emplaceI5GuideNS_9allocatorIS1_EEE10__get_elemB7v160006Ev, symObjAddr: 0x8D28, symBinAddr: 0x10001BC88, symSize: 0x28 }
  - { offsetInCU: 0x13DDB, offset: 0x49ED1, size: 0x8, addend: 0x0, symName: __ZNSt3__118__allocation_guardINS_9allocatorINS_20__shared_ptr_emplaceI5GuideNS1_IS3_EEEEEEED1B7v160006Ev, symObjAddr: 0x8D50, symBinAddr: 0x10001BCB0, symSize: 0x2C }
  - { offsetInCU: 0x13E05, offset: 0x49EFB, size: 0x8, addend: 0x0, symName: __ZNSt3__118__allocation_guardINS_9allocatorINS_20__shared_ptr_emplaceI5GuideNS1_IS3_EEEEEEEC2B7v160006IS4_EET_m, symObjAddr: 0x8D7C, symBinAddr: 0x10001BCDC, symSize: 0x28C }
  - { offsetInCU: 0x13E5C, offset: 0x49F52, size: 0x8, addend: 0x0, symName: __ZNSt3__19allocatorINS_20__shared_ptr_emplaceI5GuideNS0_IS2_EEEEEC1B7v160006IS2_EERKNS0_IT_EE, symObjAddr: 0x9008, symBinAddr: 0x10001BF68, symSize: 0x34 }
  - { offsetInCU: 0x13E9A, offset: 0x49F90, size: 0x8, addend: 0x0, symName: __ZNSt3__116allocator_traitsINS_9allocatorINS_20__shared_ptr_emplaceI5GuideNS1_IS3_EEEEEEE8allocateB7v160006ERS6_m, symObjAddr: 0x903C, symBinAddr: 0x10001BF9C, symSize: 0x2C }
  - { offsetInCU: 0x13ECF, offset: 0x49FC5, size: 0x8, addend: 0x0, symName: __ZNSt3__19allocatorINS_20__shared_ptr_emplaceI5GuideNS0_IS2_EEEEEC2B7v160006IS2_EERKNS0_IT_EE, symObjAddr: 0x9068, symBinAddr: 0x10001BFC8, symSize: 0x30 }
  - { offsetInCU: 0x13F0D, offset: 0x4A003, size: 0x8, addend: 0x0, symName: __ZNSt3__116__non_trivial_ifILb1ENS_9allocatorINS_20__shared_ptr_emplaceI5GuideNS1_IS3_EEEEEEEC2B7v160006Ev, symObjAddr: 0x9098, symBinAddr: 0x10001BFF8, symSize: 0x14 }
  - { offsetInCU: 0x13F37, offset: 0x4A02D, size: 0x8, addend: 0x0, symName: __ZNSt3__19allocatorINS_20__shared_ptr_emplaceI5GuideNS0_IS2_EEEEE8allocateB7v160006Em, symObjAddr: 0x90AC, symBinAddr: 0x10001C00C, symSize: 0x90 }
  - { offsetInCU: 0x13F76, offset: 0x4A06C, size: 0x8, addend: 0x0, symName: __ZNSt3__116allocator_traitsINS_9allocatorINS_20__shared_ptr_emplaceI5GuideNS1_IS3_EEEEEEE8max_sizeB7v160006IS6_vEEmRKS6_, symObjAddr: 0x913C, symBinAddr: 0x10001C09C, symSize: 0x24 }
  - { offsetInCU: 0x13FA5, offset: 0x4A09B, size: 0x8, addend: 0x0, symName: __ZNKSt3__19allocatorINS_20__shared_ptr_emplaceI5GuideNS0_IS2_EEEEE8max_sizeB7v160006Ev, symObjAddr: 0x9160, symBinAddr: 0x10001C0C0, symSize: 0x20 }
  - { offsetInCU: 0x13FCB, offset: 0x4A0C1, size: 0x8, addend: 0x0, symName: __ZNSt3__120__shared_ptr_emplaceI5GuideNS_9allocatorIS1_EEEC2B7v160006IJEEES3_DpOT_, symObjAddr: 0x9180, symBinAddr: 0x10001C0E0, symSize: 0x2F4 }
  - { offsetInCU: 0x14010, offset: 0x4A106, size: 0x8, addend: 0x0, symName: __ZNSt3__120__shared_ptr_emplaceI5GuideNS_9allocatorIS1_EEE8_StorageC1B7v160006EOS3_, symObjAddr: 0x9474, symBinAddr: 0x10001C3D4, symSize: 0x34 }
  - { offsetInCU: 0x1404A, offset: 0x4A140, size: 0x8, addend: 0x0, symName: __ZNSt3__120__shared_ptr_emplaceI5GuideNS_9allocatorIS1_EEE8_StorageD1B7v160006Ev, symObjAddr: 0x94A8, symBinAddr: 0x10001C408, symSize: 0x2C }
  - { offsetInCU: 0x14074, offset: 0x4A16A, size: 0x8, addend: 0x0, symName: __ZNSt3__120__shared_ptr_emplaceI5GuideNS_9allocatorIS1_EEED1Ev, symObjAddr: 0x94D4, symBinAddr: 0x10001C434, symSize: 0x2C }
  - { offsetInCU: 0x140A1, offset: 0x4A197, size: 0x8, addend: 0x0, symName: __ZNSt3__120__shared_ptr_emplaceI5GuideNS_9allocatorIS1_EEED0Ev, symObjAddr: 0x9500, symBinAddr: 0x10001C460, symSize: 0x58 }
  - { offsetInCU: 0x140CE, offset: 0x4A1C4, size: 0x8, addend: 0x0, symName: __ZNSt3__120__shared_ptr_emplaceI5GuideNS_9allocatorIS1_EEE16__on_zero_sharedEv, symObjAddr: 0x9558, symBinAddr: 0x10001C4B8, symSize: 0xD4 }
  - { offsetInCU: 0x140F4, offset: 0x4A1EA, size: 0x8, addend: 0x0, symName: __ZNSt3__120__shared_ptr_emplaceI5GuideNS_9allocatorIS1_EEE21__on_zero_shared_weakEv, symObjAddr: 0x962C, symBinAddr: 0x10001C58C, symSize: 0x240 }
  - { offsetInCU: 0x1413B, offset: 0x4A231, size: 0x8, addend: 0x0, symName: __ZNSt3__120__shared_ptr_emplaceI5GuideNS_9allocatorIS1_EEE8_StorageC2B7v160006EOS3_, symObjAddr: 0x986C, symBinAddr: 0x10001C7CC, symSize: 0x30 }
  - { offsetInCU: 0x14175, offset: 0x4A26B, size: 0x8, addend: 0x0, symName: __ZNSt3__120__shared_ptr_emplaceI5GuideNS_9allocatorIS1_EEE8_Storage11__get_allocEv, symObjAddr: 0x989C, symBinAddr: 0x10001C7FC, symSize: 0x3C }
  - { offsetInCU: 0x141CB, offset: 0x4A2C1, size: 0x8, addend: 0x0, symName: __ZNSt3__117__compressed_pairINS_9allocatorI5GuideEES2_E16__get_first_baseB7v160006EPS4_, symObjAddr: 0x98D8, symBinAddr: 0x10001C838, symSize: 0x14 }
  - { offsetInCU: 0x141EF, offset: 0x4A2E5, size: 0x8, addend: 0x0, symName: __ZNSt3__120__shared_ptr_emplaceI5GuideNS_9allocatorIS1_EEE8_StorageD2B7v160006Ev, symObjAddr: 0x98EC, symBinAddr: 0x10001C84C, symSize: 0x2C }
  - { offsetInCU: 0x14219, offset: 0x4A30F, size: 0x8, addend: 0x0, symName: __ZNSt3__120__shared_ptr_emplaceI5GuideNS_9allocatorIS1_EEED2Ev, symObjAddr: 0x9918, symBinAddr: 0x10001C878, symSize: 0xC4 }
  - { offsetInCU: 0x14246, offset: 0x4A33C, size: 0x8, addend: 0x0, symName: __ZNSt3__120__shared_ptr_emplaceI5GuideNS_9allocatorIS1_EEE11__get_allocB7v160006Ev, symObjAddr: 0x99DC, symBinAddr: 0x10001C93C, symSize: 0x28 }
  - { offsetInCU: 0x1426C, offset: 0x4A362, size: 0x8, addend: 0x0, symName: __ZNSt3__116allocator_traitsINS_9allocatorINS_20__shared_ptr_emplaceI5GuideNS1_IS3_EEEEEEE10deallocateB7v160006ERS6_PS5_m, symObjAddr: 0x9A04, symBinAddr: 0x10001C964, symSize: 0x34 }
  - { offsetInCU: 0x142B1, offset: 0x4A3A7, size: 0x8, addend: 0x0, symName: __ZNSt3__114pointer_traitsIPNS_20__shared_ptr_emplaceI5GuideNS_9allocatorIS2_EEEEE10pointer_toB7v160006ERS5_, symObjAddr: 0x9A38, symBinAddr: 0x10001C998, symSize: 0x14 }
  - { offsetInCU: 0x142D5, offset: 0x4A3CB, size: 0x8, addend: 0x0, symName: __ZNSt3__19allocatorINS_20__shared_ptr_emplaceI5GuideNS0_IS2_EEEEE10deallocateB7v160006EPS4_m, symObjAddr: 0x9A4C, symBinAddr: 0x10001C9AC, symSize: 0x80 }
  - { offsetInCU: 0x14319, offset: 0x4A40F, size: 0x8, addend: 0x0, symName: __ZNSt3__110shared_ptrI5GuideE18__enable_weak_thisB7v160006Ez, symObjAddr: 0x9ACC, symBinAddr: 0x10001CA2C, symSize: 0x10 }
  - { offsetInCU: 0x14340, offset: 0x4A436, size: 0x8, addend: 0x0, symName: __ZNSt3__120__shared_ptr_emplaceI5GuideNS_9allocatorIS1_EEE8_Storage10__get_elemEv, symObjAddr: 0x9ADC, symBinAddr: 0x10001CA3C, symSize: 0x3C }
  - { offsetInCU: 0x14396, offset: 0x4A48C, size: 0x8, addend: 0x0, symName: __ZNSt3__117__compressed_pairINS_9allocatorI5GuideEES2_E17__get_second_baseB7v160006EPS4_, symObjAddr: 0x9B18, symBinAddr: 0x10001CA78, symSize: 0x14 }
  - { offsetInCU: 0x143BA, offset: 0x4A4B0, size: 0x8, addend: 0x0, symName: __ZNSt3__118__allocation_guardINS_9allocatorINS_20__shared_ptr_emplaceI5GuideNS1_IS3_EEEEEEED2B7v160006Ev, symObjAddr: 0x9B2C, symBinAddr: 0x10001CA8C, symSize: 0x108 }
  - { offsetInCU: 0x143E4, offset: 0x4A4DA, size: 0x8, addend: 0x0, symName: __ZNSt3__19allocatorI5GuideEC2B7v160006Ev, symObjAddr: 0x9C34, symBinAddr: 0x10001CB94, symSize: 0x2C }
  - { offsetInCU: 0x1440E, offset: 0x4A504, size: 0x8, addend: 0x0, symName: __ZNSt3__116__non_trivial_ifILb1ENS_9allocatorI5GuideEEEC2B7v160006Ev, symObjAddr: 0x9C60, symBinAddr: 0x10001CBC0, symSize: 0x14 }
  - { offsetInCU: 0x14438, offset: 0x4A52E, size: 0x8, addend: 0x0, symName: __ZNSt3__110shared_ptrI5GuideEC1B7v160006EOS2_, symObjAddr: 0x9C74, symBinAddr: 0x10001CBD4, symSize: 0x34 }
  - { offsetInCU: 0x14472, offset: 0x4A568, size: 0x8, addend: 0x0, symName: __ZNSt3__110shared_ptrI5GuideE4swapB7v160006ERS2_, symObjAddr: 0x9CA8, symBinAddr: 0x10001CC08, symSize: 0x6C }
  - { offsetInCU: 0x144A8, offset: 0x4A59E, size: 0x8, addend: 0x0, symName: __ZNSt3__110shared_ptrI5GuideEC2B7v160006EOS2_, symObjAddr: 0x9D14, symBinAddr: 0x10001CC74, symSize: 0x1B8 }
  - { offsetInCU: 0x144E2, offset: 0x4A5D8, size: 0x8, addend: 0x0, symName: __ZNSt3__19allocatorI7SettingEC1B7v160006Ev, symObjAddr: 0xA2F8, symBinAddr: 0x10001D258, symSize: 0x2C }
  - { offsetInCU: 0x14548, offset: 0x4A63E, size: 0x8, addend: 0x0, symName: __ZNSt3__118__allocation_guardINS_9allocatorINS_20__shared_ptr_emplaceI7SettingNS1_IS3_EEEEEEEC1B7v160006IS4_EET_m, symObjAddr: 0xA324, symBinAddr: 0x10001D284, symSize: 0x34 }
  - { offsetInCU: 0x14599, offset: 0x4A68F, size: 0x8, addend: 0x0, symName: __ZNKSt3__118__allocation_guardINS_9allocatorINS_20__shared_ptr_emplaceI7SettingNS1_IS3_EEEEEEE5__getB7v160006Ev, symObjAddr: 0xA358, symBinAddr: 0x10001D2B8, symSize: 0x64 }
  - { offsetInCU: 0x145BF, offset: 0x4A6B5, size: 0x8, addend: 0x0, symName: __ZNSt3__120__shared_ptr_emplaceI7SettingNS_9allocatorIS1_EEEC1B7v160006IJEEES3_DpOT_, symObjAddr: 0xA3BC, symBinAddr: 0x10001D31C, symSize: 0x2C }
  - { offsetInCU: 0x145FF, offset: 0x4A6F5, size: 0x8, addend: 0x0, symName: __ZNSt3__118__allocation_guardINS_9allocatorINS_20__shared_ptr_emplaceI7SettingNS1_IS3_EEEEEEE13__release_ptrB7v160006Ev, symObjAddr: 0xA3E8, symBinAddr: 0x10001D348, symSize: 0xA8 }
  - { offsetInCU: 0x14633, offset: 0x4A729, size: 0x8, addend: 0x0, symName: __ZNSt3__110shared_ptrI7SettingE27__create_with_control_blockB7v160006IS1_NS_20__shared_ptr_emplaceIS1_NS_9allocatorIS1_EEEEEES2_PT_PT0_, symObjAddr: 0xA490, symBinAddr: 0x10001D3F0, symSize: 0x1B0 }
  - { offsetInCU: 0x1468B, offset: 0x4A781, size: 0x8, addend: 0x0, symName: __ZNSt3__120__shared_ptr_emplaceI7SettingNS_9allocatorIS1_EEE10__get_elemB7v160006Ev, symObjAddr: 0xA640, symBinAddr: 0x10001D5A0, symSize: 0x28 }
  - { offsetInCU: 0x146B1, offset: 0x4A7A7, size: 0x8, addend: 0x0, symName: __ZNSt3__118__allocation_guardINS_9allocatorINS_20__shared_ptr_emplaceI7SettingNS1_IS3_EEEEEEED1B7v160006Ev, symObjAddr: 0xA668, symBinAddr: 0x10001D5C8, symSize: 0x2C }
  - { offsetInCU: 0x146DB, offset: 0x4A7D1, size: 0x8, addend: 0x0, symName: __ZNSt3__118__allocation_guardINS_9allocatorINS_20__shared_ptr_emplaceI7SettingNS1_IS3_EEEEEEEC2B7v160006IS4_EET_m, symObjAddr: 0xA694, symBinAddr: 0x10001D5F4, symSize: 0x28C }
  - { offsetInCU: 0x14732, offset: 0x4A828, size: 0x8, addend: 0x0, symName: __ZNSt3__19allocatorINS_20__shared_ptr_emplaceI7SettingNS0_IS2_EEEEEC1B7v160006IS2_EERKNS0_IT_EE, symObjAddr: 0xA920, symBinAddr: 0x10001D880, symSize: 0x34 }
  - { offsetInCU: 0x14770, offset: 0x4A866, size: 0x8, addend: 0x0, symName: __ZNSt3__116allocator_traitsINS_9allocatorINS_20__shared_ptr_emplaceI7SettingNS1_IS3_EEEEEEE8allocateB7v160006ERS6_m, symObjAddr: 0xA954, symBinAddr: 0x10001D8B4, symSize: 0x2C }
  - { offsetInCU: 0x147A5, offset: 0x4A89B, size: 0x8, addend: 0x0, symName: __ZNSt3__19allocatorINS_20__shared_ptr_emplaceI7SettingNS0_IS2_EEEEEC2B7v160006IS2_EERKNS0_IT_EE, symObjAddr: 0xA980, symBinAddr: 0x10001D8E0, symSize: 0x30 }
  - { offsetInCU: 0x147E3, offset: 0x4A8D9, size: 0x8, addend: 0x0, symName: __ZNSt3__116__non_trivial_ifILb1ENS_9allocatorINS_20__shared_ptr_emplaceI7SettingNS1_IS3_EEEEEEEC2B7v160006Ev, symObjAddr: 0xA9B0, symBinAddr: 0x10001D910, symSize: 0x14 }
  - { offsetInCU: 0x1480D, offset: 0x4A903, size: 0x8, addend: 0x0, symName: __ZNSt3__19allocatorINS_20__shared_ptr_emplaceI7SettingNS0_IS2_EEEEE8allocateB7v160006Em, symObjAddr: 0xA9C4, symBinAddr: 0x10001D924, symSize: 0x90 }
  - { offsetInCU: 0x1484C, offset: 0x4A942, size: 0x8, addend: 0x0, symName: __ZNSt3__116allocator_traitsINS_9allocatorINS_20__shared_ptr_emplaceI7SettingNS1_IS3_EEEEEEE8max_sizeB7v160006IS6_vEEmRKS6_, symObjAddr: 0xAA54, symBinAddr: 0x10001D9B4, symSize: 0x24 }
  - { offsetInCU: 0x1487B, offset: 0x4A971, size: 0x8, addend: 0x0, symName: __ZNKSt3__19allocatorINS_20__shared_ptr_emplaceI7SettingNS0_IS2_EEEEE8max_sizeB7v160006Ev, symObjAddr: 0xAA78, symBinAddr: 0x10001D9D8, symSize: 0x20 }
  - { offsetInCU: 0x148A1, offset: 0x4A997, size: 0x8, addend: 0x0, symName: __ZNSt3__120__shared_ptr_emplaceI7SettingNS_9allocatorIS1_EEEC2B7v160006IJEEES3_DpOT_, symObjAddr: 0xAA98, symBinAddr: 0x10001D9F8, symSize: 0x2F4 }
  - { offsetInCU: 0x148E6, offset: 0x4A9DC, size: 0x8, addend: 0x0, symName: __ZNSt3__120__shared_ptr_emplaceI7SettingNS_9allocatorIS1_EEE8_StorageC1B7v160006EOS3_, symObjAddr: 0xAD8C, symBinAddr: 0x10001DCEC, symSize: 0x34 }
  - { offsetInCU: 0x14920, offset: 0x4AA16, size: 0x8, addend: 0x0, symName: __ZNSt3__120__shared_ptr_emplaceI7SettingNS_9allocatorIS1_EEE8_StorageD1B7v160006Ev, symObjAddr: 0xADC0, symBinAddr: 0x10001DD20, symSize: 0x2C }
  - { offsetInCU: 0x1494A, offset: 0x4AA40, size: 0x8, addend: 0x0, symName: __ZNSt3__120__shared_ptr_emplaceI7SettingNS_9allocatorIS1_EEED1Ev, symObjAddr: 0xADEC, symBinAddr: 0x10001DD4C, symSize: 0x2C }
  - { offsetInCU: 0x14977, offset: 0x4AA6D, size: 0x8, addend: 0x0, symName: __ZNSt3__120__shared_ptr_emplaceI7SettingNS_9allocatorIS1_EEED0Ev, symObjAddr: 0xAE18, symBinAddr: 0x10001DD78, symSize: 0x58 }
  - { offsetInCU: 0x149A4, offset: 0x4AA9A, size: 0x8, addend: 0x0, symName: __ZNSt3__120__shared_ptr_emplaceI7SettingNS_9allocatorIS1_EEE16__on_zero_sharedEv, symObjAddr: 0xAE70, symBinAddr: 0x10001DDD0, symSize: 0xD4 }
  - { offsetInCU: 0x149CA, offset: 0x4AAC0, size: 0x8, addend: 0x0, symName: __ZNSt3__120__shared_ptr_emplaceI7SettingNS_9allocatorIS1_EEE21__on_zero_shared_weakEv, symObjAddr: 0xAF44, symBinAddr: 0x10001DEA4, symSize: 0x240 }
  - { offsetInCU: 0x14A11, offset: 0x4AB07, size: 0x8, addend: 0x0, symName: __ZNSt3__120__shared_ptr_emplaceI7SettingNS_9allocatorIS1_EEE8_StorageC2B7v160006EOS3_, symObjAddr: 0xB184, symBinAddr: 0x10001E0E4, symSize: 0x30 }
  - { offsetInCU: 0x14A4B, offset: 0x4AB41, size: 0x8, addend: 0x0, symName: __ZNSt3__120__shared_ptr_emplaceI7SettingNS_9allocatorIS1_EEE8_Storage11__get_allocEv, symObjAddr: 0xB1B4, symBinAddr: 0x10001E114, symSize: 0x3C }
  - { offsetInCU: 0x14AA1, offset: 0x4AB97, size: 0x8, addend: 0x0, symName: __ZNSt3__117__compressed_pairINS_9allocatorI7SettingEES2_E16__get_first_baseB7v160006EPS4_, symObjAddr: 0xB1F0, symBinAddr: 0x10001E150, symSize: 0x14 }
  - { offsetInCU: 0x14AC5, offset: 0x4ABBB, size: 0x8, addend: 0x0, symName: __ZNSt3__120__shared_ptr_emplaceI7SettingNS_9allocatorIS1_EEE8_StorageD2B7v160006Ev, symObjAddr: 0xB204, symBinAddr: 0x10001E164, symSize: 0x2C }
  - { offsetInCU: 0x14AEF, offset: 0x4ABE5, size: 0x8, addend: 0x0, symName: __ZNSt3__120__shared_ptr_emplaceI7SettingNS_9allocatorIS1_EEED2Ev, symObjAddr: 0xB230, symBinAddr: 0x10001E190, symSize: 0xC4 }
  - { offsetInCU: 0x14B1C, offset: 0x4AC12, size: 0x8, addend: 0x0, symName: __ZNSt3__120__shared_ptr_emplaceI7SettingNS_9allocatorIS1_EEE11__get_allocB7v160006Ev, symObjAddr: 0xB2F4, symBinAddr: 0x10001E254, symSize: 0x28 }
  - { offsetInCU: 0x14B42, offset: 0x4AC38, size: 0x8, addend: 0x0, symName: __ZNSt3__116allocator_traitsINS_9allocatorINS_20__shared_ptr_emplaceI7SettingNS1_IS3_EEEEEEE10deallocateB7v160006ERS6_PS5_m, symObjAddr: 0xB31C, symBinAddr: 0x10001E27C, symSize: 0x34 }
  - { offsetInCU: 0x14B87, offset: 0x4AC7D, size: 0x8, addend: 0x0, symName: __ZNSt3__114pointer_traitsIPNS_20__shared_ptr_emplaceI7SettingNS_9allocatorIS2_EEEEE10pointer_toB7v160006ERS5_, symObjAddr: 0xB350, symBinAddr: 0x10001E2B0, symSize: 0x14 }
  - { offsetInCU: 0x14BAB, offset: 0x4ACA1, size: 0x8, addend: 0x0, symName: __ZNSt3__19allocatorINS_20__shared_ptr_emplaceI7SettingNS0_IS2_EEEEE10deallocateB7v160006EPS4_m, symObjAddr: 0xB364, symBinAddr: 0x10001E2C4, symSize: 0x80 }
  - { offsetInCU: 0x14BEF, offset: 0x4ACE5, size: 0x8, addend: 0x0, symName: __ZNSt3__110shared_ptrI7SettingE18__enable_weak_thisB7v160006Ez, symObjAddr: 0xB3E4, symBinAddr: 0x10001E344, symSize: 0x10 }
  - { offsetInCU: 0x14C16, offset: 0x4AD0C, size: 0x8, addend: 0x0, symName: __ZNSt3__120__shared_ptr_emplaceI7SettingNS_9allocatorIS1_EEE8_Storage10__get_elemEv, symObjAddr: 0xB3F4, symBinAddr: 0x10001E354, symSize: 0x3C }
  - { offsetInCU: 0x14C6C, offset: 0x4AD62, size: 0x8, addend: 0x0, symName: __ZNSt3__117__compressed_pairINS_9allocatorI7SettingEES2_E17__get_second_baseB7v160006EPS4_, symObjAddr: 0xB430, symBinAddr: 0x10001E390, symSize: 0x14 }
  - { offsetInCU: 0x14C90, offset: 0x4AD86, size: 0x8, addend: 0x0, symName: __ZNSt3__118__allocation_guardINS_9allocatorINS_20__shared_ptr_emplaceI7SettingNS1_IS3_EEEEEEED2B7v160006Ev, symObjAddr: 0xB444, symBinAddr: 0x10001E3A4, symSize: 0x108 }
  - { offsetInCU: 0x14CBA, offset: 0x4ADB0, size: 0x8, addend: 0x0, symName: __ZNSt3__19allocatorI7SettingEC2B7v160006Ev, symObjAddr: 0xB54C, symBinAddr: 0x10001E4AC, symSize: 0x2C }
  - { offsetInCU: 0x14CE4, offset: 0x4ADDA, size: 0x8, addend: 0x0, symName: __ZNSt3__116__non_trivial_ifILb1ENS_9allocatorI7SettingEEEC2B7v160006Ev, symObjAddr: 0xB578, symBinAddr: 0x10001E4D8, symSize: 0x14 }
  - { offsetInCU: 0x14D0E, offset: 0x4AE04, size: 0x8, addend: 0x0, symName: __ZNSt3__110shared_ptrI7SettingEC1B7v160006EOS2_, symObjAddr: 0xB58C, symBinAddr: 0x10001E4EC, symSize: 0x34 }
  - { offsetInCU: 0x14D48, offset: 0x4AE3E, size: 0x8, addend: 0x0, symName: __ZNSt3__110shared_ptrI7SettingE4swapB7v160006ERS2_, symObjAddr: 0xB5C0, symBinAddr: 0x10001E520, symSize: 0x6C }
  - { offsetInCU: 0x14D7E, offset: 0x4AE74, size: 0x8, addend: 0x0, symName: __ZNSt3__110shared_ptrI7SettingEC2B7v160006EOS2_, symObjAddr: 0xB62C, symBinAddr: 0x10001E58C, symSize: 0x1B8 }
  - { offsetInCU: 0x3B, offset: 0x4AFE7, size: 0x8, addend: 0x0, symName: _.str, symObjAddr: 0x5F60, symBinAddr: 0x100048F40, symSize: 0x0 }
  - { offsetInCU: 0x6B, offset: 0x4B017, size: 0x8, addend: 0x0, symName: _.str.1, symObjAddr: 0x5F80, symBinAddr: 0x100048F60, symSize: 0x0 }
  - { offsetInCU: 0x88, offset: 0x4B034, size: 0x8, addend: 0x0, symName: _.str.2, symObjAddr: 0x5FA0, symBinAddr: 0x100048F80, symSize: 0x0 }
  - { offsetInCU: 0xA5, offset: 0x4B051, size: 0x8, addend: 0x0, symName: _.str.3, symObjAddr: 0x5FC0, symBinAddr: 0x100048FA0, symSize: 0x0 }
  - { offsetInCU: 0xB6, offset: 0x4B062, size: 0x8, addend: 0x0, symName: _.str.4, symObjAddr: 0x5FE0, symBinAddr: 0x100048FC0, symSize: 0x0 }
  - { offsetInCU: 0xA9EC, offset: 0x55998, size: 0x8, addend: 0x0, symName: __ZNSt3__13minB7v160006IfEERKT_S3_S3_, symObjAddr: 0x36E8, symBinAddr: 0x100020B34, symSize: 0x2C }
  - { offsetInCU: 0xAA32, offset: 0x559DE, size: 0x8, addend: 0x0, symName: __ZNSt3__13maxB7v160006IfEERKT_S3_S3_, symObjAddr: 0x3714, symBinAddr: 0x100020B60, symSize: 0x2C }
  - { offsetInCU: 0xAA78, offset: 0x55A24, size: 0x8, addend: 0x0, symName: __ZNSt3__13minB7v160006IfNS_6__lessIffEEEERKT_S5_S5_T0_, symObjAddr: 0x3740, symBinAddr: 0x100020B8C, symSize: 0x1E8 }
  - { offsetInCU: 0xAB17, offset: 0x55AC3, size: 0x8, addend: 0x0, symName: __ZNSt3__13maxB7v160006IfNS_6__lessIffEEEERKT_S5_S5_T0_, symObjAddr: 0x3A34, symBinAddr: 0x100020E80, symSize: 0x1E8 }
  - { offsetInCU: 0xD168, offset: 0x58114, size: 0x8, addend: 0x0, symName: __ZN6ButtonC2EffffPN2sf4FontENSt3__112basic_stringIcNS3_11char_traitsIcEENS3_9allocatorIcEEEE, symObjAddr: 0x0, symBinAddr: 0x10001E910, symSize: 0xC68 }
  - { offsetInCU: 0xD1F6, offset: 0x581A2, size: 0x8, addend: 0x0, symName: __ZN2sf7Vector2IfEC1Eff, symObjAddr: 0xC68, symBinAddr: 0x10001F578, symSize: 0x3C }
  - { offsetInCU: 0xD240, offset: 0x581EC, size: 0x8, addend: 0x0, symName: __ZN2sf14RectangleShapeD1Ev, symObjAddr: 0xD08, symBinAddr: 0x10001F5B4, symSize: 0x2C }
  - { offsetInCU: 0xD26C, offset: 0x58218, size: 0x8, addend: 0x0, symName: __ZN6ButtonC1EffffPN2sf4FontENSt3__112basic_stringIcNS3_11char_traitsIcEENS3_9allocatorIcEEEE, symObjAddr: 0xD34, symBinAddr: 0x10001F5E0, symSize: 0x5C }
  - { offsetInCU: 0xD2F3, offset: 0x5829F, size: 0x8, addend: 0x0, symName: __ZN6ButtonD2Ev, symObjAddr: 0xD90, symBinAddr: 0x10001F63C, symSize: 0x78 }
  - { offsetInCU: 0xD31F, offset: 0x582CB, size: 0x8, addend: 0x0, symName: __ZN6ButtonD1Ev, symObjAddr: 0xE08, symBinAddr: 0x10001F6B4, symSize: 0x2C }
  - { offsetInCU: 0xD34B, offset: 0x582F7, size: 0x8, addend: 0x0, symName: __ZNK6Button9isPressedEv, symObjAddr: 0xE34, symBinAddr: 0x10001F6E0, symSize: 0xC8 }
  - { offsetInCU: 0xD373, offset: 0x5831F, size: 0x8, addend: 0x0, symName: __ZN6Button6updateEN2sf7Vector2IfEE, symObjAddr: 0xEFC, symBinAddr: 0x10001F7A8, symSize: 0x744 }
  - { offsetInCU: 0xD3AF, offset: 0x5835B, size: 0x8, addend: 0x0, symName: __ZNK2sf4RectIfE8containsERKNS_7Vector2IfEE, symObjAddr: 0x1640, symBinAddr: 0x10001FEEC, symSize: 0x114 }
  - { offsetInCU: 0xD3E6, offset: 0x58392, size: 0x8, addend: 0x0, symName: __ZN6Button6renderEPN2sf12RenderTargetE, symObjAddr: 0x189C, symBinAddr: 0x100020000, symSize: 0x54 }
  - { offsetInCU: 0xD41D, offset: 0x583C9, size: 0x8, addend: 0x0, symName: __ZN2sf14RectangleShapeD2Ev, symObjAddr: 0x2C08, symBinAddr: 0x100020054, symSize: 0x2C }
  - { offsetInCU: 0xD449, offset: 0x583F5, size: 0x8, addend: 0x0, symName: __ZThn8_N2sf14RectangleShapeD1Ev, symObjAddr: 0x2C34, symBinAddr: 0x100020080, symSize: 0x1C }
  - { offsetInCU: 0xD45F, offset: 0x5840B, size: 0x8, addend: 0x0, symName: __ZN2sf7Vector2IfEC2Eff, symObjAddr: 0x2C50, symBinAddr: 0x10002009C, symSize: 0x10C }
  - { offsetInCU: 0xD4A9, offset: 0x58455, size: 0x8, addend: 0x0, symName: __ZNK2sf4RectIfE8containsEff, symObjAddr: 0x2D5C, symBinAddr: 0x1000201A8, symSize: 0x98C }
  - { offsetInCU: 0xD53D, offset: 0x584E9, size: 0x8, addend: 0x0, symName: __ZNKSt3__16__lessIffEclB7v160006ERKfS3_, symObjAddr: 0x3928, symBinAddr: 0x100020D74, symSize: 0x10C }
  - { offsetInCU: 0x3B, offset: 0x58585, size: 0x8, addend: 0x0, symName: _.str, symObjAddr: 0xCFA0, symBinAddr: 0x100048FE0, symSize: 0x0 }
  - { offsetInCU: 0x6B, offset: 0x585B5, size: 0x8, addend: 0x0, symName: _.str.1, symObjAddr: 0xCFE0, symBinAddr: 0x100049020, symSize: 0x0 }
  - { offsetInCU: 0x7C, offset: 0x585C6, size: 0x8, addend: 0x0, symName: _.str.2, symObjAddr: 0xD020, symBinAddr: 0x100049060, symSize: 0x0 }
  - { offsetInCU: 0x8D, offset: 0x585D7, size: 0x8, addend: 0x0, symName: _.str.3, symObjAddr: 0xD060, symBinAddr: 0x1000490A0, symSize: 0x0 }
  - { offsetInCU: 0xAA, offset: 0x585F4, size: 0x8, addend: 0x0, symName: _.str.4, symObjAddr: 0xD0C0, symBinAddr: 0x100049100, symSize: 0x0 }
  - { offsetInCU: 0xC7, offset: 0x58611, size: 0x8, addend: 0x0, symName: _.str.5, symObjAddr: 0xD120, symBinAddr: 0x100049160, symSize: 0x0 }
  - { offsetInCU: 0xE4, offset: 0x5862E, size: 0x8, addend: 0x0, symName: _.str.6, symObjAddr: 0xD160, symBinAddr: 0x1000491A0, symSize: 0x0 }
  - { offsetInCU: 0x101, offset: 0x5864B, size: 0x8, addend: 0x0, symName: _.str.7, symObjAddr: 0xD1A0, symBinAddr: 0x1000491E0, symSize: 0x0 }
  - { offsetInCU: 0x11F, offset: 0x58669, size: 0x8, addend: 0x0, symName: _.str.8, symObjAddr: 0xD1E0, symBinAddr: 0x100049220, symSize: 0x0 }
  - { offsetInCU: 0x787C, offset: 0x5FDC6, size: 0x8, addend: 0x0, symName: __ZNSt3__17advanceB7v160006IPN2sf6VertexEmmvEEvRT_T0_, symObjAddr: 0x2F00, symBinAddr: 0x100023B74, symSize: 0x50 }
  - { offsetInCU: 0xB59A, offset: 0x63AE4, size: 0x8, addend: 0x0, symName: __ZNSt3__18distanceB7v160006IPN2sf6VertexEEENS_15iterator_traitsIT_E15difference_typeES5_S5_, symObjAddr: 0x2D68, symBinAddr: 0x100023B48, symSize: 0x2C }
  - { offsetInCU: 0xB5E0, offset: 0x63B2A, size: 0x8, addend: 0x0, symName: __ZNSt3__14copyB7v160006IPN2sf6VertexES3_EET0_T_S5_S4_, symObjAddr: 0x2F50, symBinAddr: 0x100023BC4, symSize: 0x254 }
  - { offsetInCU: 0xB641, offset: 0x63B8B, size: 0x8, addend: 0x0, symName: __ZNSt3__125__debug_db_invalidate_allB7v160006INS_6vectorIN2sf6VertexENS_9allocatorIS3_EEEEEEvPT_, symObjAddr: 0x3F04, symBinAddr: 0x100024B78, symSize: 0x10 }
  - { offsetInCU: 0xB674, offset: 0x63BBE, size: 0x8, addend: 0x0, symName: __ZNSt3__110__distanceB7v160006IPN2sf6VertexEEENS_15iterator_traitsIT_E15difference_typeES5_S5_NS_26random_access_iterator_tagE, symObjAddr: 0x3F14, symBinAddr: 0x100024B88, symSize: 0x28 }
  - { offsetInCU: 0xB6C5, offset: 0x63C0F, size: 0x8, addend: 0x0, symName: __ZNSt3__121__convert_to_integralB7v160006Em, symObjAddr: 0x3F9C, symBinAddr: 0x100024BB0, symSize: 0x14 }
  - { offsetInCU: 0xB6F3, offset: 0x63C3D, size: 0x8, addend: 0x0, symName: __ZNSt3__19__advanceB7v160006IPN2sf6VertexEEEvRT_NS_15iterator_traitsIS4_E15difference_typeENS_26random_access_iterator_tagE, symObjAddr: 0x3FB0, symBinAddr: 0x100024BC4, symSize: 0x80 }
  - { offsetInCU: 0xB740, offset: 0x63C8A, size: 0x8, addend: 0x0, symName: __ZNSt3__16__copyB7v160006INS_17_ClassicAlgPolicyEPN2sf6VertexES4_S4_EENS_4pairIT0_T2_EES6_T1_S7_, symObjAddr: 0x4030, symBinAddr: 0x100024C44, symSize: 0x22C }
  - { offsetInCU: 0xB7B3, offset: 0x63CFD, size: 0x8, addend: 0x0, symName: __ZNSt3__123__dispatch_copy_or_moveB7v160006INS_17_ClassicAlgPolicyENS_11__copy_loopIS1_EENS_14__copy_trivialEPN2sf6VertexES7_S7_EENS_4pairIT2_T4_EES9_T3_SA_, symObjAddr: 0x425C, symBinAddr: 0x100024E70, symSize: 0x23C }
  - { offsetInCU: 0xB838, offset: 0x63D82, size: 0x8, addend: 0x0, symName: __ZNSt3__121__unwrap_and_dispatchB7v160006INS_10__overloadINS_11__copy_loopINS_17_ClassicAlgPolicyEEENS_14__copy_trivialEEEPN2sf6VertexES9_S9_Li0EEENS_4pairIT0_T2_EESB_T1_SC_, symObjAddr: 0x44A4, symBinAddr: 0x1000250AC, symSize: 0x5A4 }
  - { offsetInCU: 0xB8D6, offset: 0x63E20, size: 0x8, addend: 0x0, symName: __ZNSt3__114__unwrap_rangeB7v160006IPN2sf6VertexES3_EENS_4pairIT0_S5_EET_S7_, symObjAddr: 0x4A48, symBinAddr: 0x100025650, symSize: 0x350 }
  - { offsetInCU: 0xBA1B, offset: 0x63F65, size: 0x8, addend: 0x0, symName: __ZNSt3__113__unwrap_iterB7v160006IPN2sf6VertexENS_18__unwrap_iter_implIS3_Lb1EEELi0EEEDTclsrT0_8__unwrapclsr3stdE7declvalIT_EEEES7_, symObjAddr: 0x4FC8, symBinAddr: 0x100025BD0, symSize: 0x24 }
  - { offsetInCU: 0xBA62, offset: 0x63FAC, size: 0x8, addend: 0x0, symName: __ZNSt3__19make_pairB7v160006IPN2sf6VertexES3_EENS_4pairINS_18__unwrap_ref_decayIT_E4typeENS5_IT0_E4typeEEEOS6_OS9_, symObjAddr: 0x4FEC, symBinAddr: 0x100025BF4, symSize: 0x20C }
  - { offsetInCU: 0xBAB5, offset: 0x63FFF, size: 0x8, addend: 0x0, symName: __ZNSt3__114__rewrap_rangeB7v160006IPN2sf6VertexES3_EET_S4_T0_, symObjAddr: 0x51F8, symBinAddr: 0x100025E00, symSize: 0x2C }
  - { offsetInCU: 0xBB04, offset: 0x6404E, size: 0x8, addend: 0x0, symName: __ZNSt3__113__rewrap_iterB7v160006IPN2sf6VertexES3_NS_18__unwrap_iter_implIS3_Lb1EEEEET_S6_T0_, symObjAddr: 0x5224, symBinAddr: 0x100025E2C, symSize: 0x5C }
  - { offsetInCU: 0xBB5C, offset: 0x640A6, size: 0x8, addend: 0x0, symName: __ZNSt3__119__copy_trivial_implB7v160006IN2sf6VertexES2_EENS_4pairIPT_PT0_EES5_S5_S7_, symObjAddr: 0x5280, symBinAddr: 0x100025E88, symSize: 0x3C0 }
  - { offsetInCU: 0xBBCF, offset: 0x64119, size: 0x8, addend: 0x0, symName: __ZNSt3__19make_pairB7v160006IRPN2sf6VertexES3_EENS_4pairINS_18__unwrap_ref_decayIT_E4typeENS6_IT0_E4typeEEEOS7_OSA_, symObjAddr: 0x5640, symBinAddr: 0x100026248, symSize: 0x20C }
  - { offsetInCU: 0xBC75, offset: 0x641BF, size: 0x8, addend: 0x0, symName: __ZNSt3__130__uninitialized_allocator_copyB7v160006INS_9allocatorIN2sf6VertexEEEPS3_S5_S5_EET2_RT_T0_T1_S6_, symObjAddr: 0x5A8C, symBinAddr: 0x100026680, symSize: 0x534 }
  - { offsetInCU: 0xBD27, offset: 0x64271, size: 0x8, addend: 0x0, symName: __ZNSt3__122__make_exception_guardB7v160006INS_29_AllocatorDestroyRangeReverseINS_9allocatorIN2sf6VertexEEEPS4_EEEENS_28__exception_guard_exceptionsIT_EES9_, symObjAddr: 0x63C0, symBinAddr: 0x100026EC4, symSize: 0x1F8 }
  - { offsetInCU: 0xBD60, offset: 0x642AA, size: 0x8, addend: 0x0, symName: __ZNSt3__119__allocator_destroyB7v160006INS_9allocatorIN2sf6VertexEEENS_16reverse_iteratorIPS3_EES7_EEvRT_T0_T1_, symObjAddr: 0x6D3C, symBinAddr: 0x100027840, symSize: 0x2B8 }
  - { offsetInCU: 0xBDD0, offset: 0x6431A, size: 0x8, addend: 0x0, symName: __ZNSt3__1neB7v160006IPN2sf6VertexES3_EEbRKNS_16reverse_iteratorIT_EERKNS4_IT0_EE, symObjAddr: 0x7028, symBinAddr: 0x100027B2C, symSize: 0x48 }
  - { offsetInCU: 0xBE1F, offset: 0x64369, size: 0x8, addend: 0x0, symName: __ZNSt3__112__to_addressB7v160006INS_16reverse_iteratorIPN2sf6VertexEEEvEENS_5decayIDTclsr19__to_address_helperIT_EE6__callclsr3stdE7declvalIRKS7_EEEEE4typeES9_, symObjAddr: 0x709C, symBinAddr: 0x100027B74, symSize: 0x24 }
  - { offsetInCU: 0xBE81, offset: 0x643CB, size: 0x8, addend: 0x0, symName: __ZNSt3__119__allocate_at_leastB7v160006INS_9allocatorIN2sf6VertexEEEEENS_19__allocation_resultINS_16allocator_traitsIT_E7pointerEEERS7_m, symObjAddr: 0x7DE0, symBinAddr: 0x1000285B0, symSize: 0x28C }
  - { offsetInCU: 0xBEC9, offset: 0x64413, size: 0x8, addend: 0x0, symName: __ZNSt3__13minB7v160006ImEERKT_S3_S3_, symObjAddr: 0x815C, symBinAddr: 0x10002892C, symSize: 0x2C }
  - { offsetInCU: 0xC11A, offset: 0x64664, size: 0x8, addend: 0x0, symName: __ZNSt3__13minB7v160006ImNS_6__lessImmEEEERKT_S5_S5_T0_, symObjAddr: 0x81E8, symBinAddr: 0x1000289B8, symSize: 0x1E8 }
  - { offsetInCU: 0xC17E, offset: 0x646C8, size: 0x8, addend: 0x0, symName: __ZNSt3__120__throw_length_errorB7v160006EPKc, symObjAddr: 0x84E4, symBinAddr: 0x100028BF8, symSize: 0x68 }
  - { offsetInCU: 0xEBD8, offset: 0x67122, size: 0x8, addend: 0x0, symName: __ZN4BaseC2ENSt3__112basic_stringIcNS0_11char_traitsIcEENS0_9allocatorIcEEEEiiff, symObjAddr: 0x0, symBinAddr: 0x100021100, symSize: 0xED8 }
  - { offsetInCU: 0xEC93, offset: 0x671DD, size: 0x8, addend: 0x0, symName: __ZN2sf4TextaSERKS0_, symObjAddr: 0xF04, symBinAddr: 0x100021FD8, symSize: 0xD0 }
  - { offsetInCU: 0xECC4, offset: 0x6720E, size: 0x8, addend: 0x0, symName: __ZN4Base13set_up_spriteEiiffRN2sf6SpriteERNS0_7TextureENSt3__112basic_stringIcNS5_11char_traitsIcEENS5_9allocatorIcEEEE, symObjAddr: 0x100C, symBinAddr: 0x1000220A8, symSize: 0x2A0 }
  - { offsetInCU: 0xED63, offset: 0x672AD, size: 0x8, addend: 0x0, symName: __ZN4Base12initBaseFontERN2sf4FontENSt3__112basic_stringIcNS3_11char_traitsIcEENS3_9allocatorIcEEEE, symObjAddr: 0x12E0, symBinAddr: 0x100022348, symSize: 0x64 }
  - { offsetInCU: 0xEDAA, offset: 0x672F4, size: 0x8, addend: 0x0, symName: __ZN4Base11setBaseTextERN2sf4TextERNS0_4FontENSt3__112basic_stringIcNS5_11char_traitsIcEENS5_9allocatorIcEEEENS0_5ColorEsff, symObjAddr: 0x1344, symBinAddr: 0x1000223AC, symSize: 0x480 }
  - { offsetInCU: 0xEE47, offset: 0x67391, size: 0x8, addend: 0x0, symName: __ZN2sf6SpriteD1Ev, symObjAddr: 0x17C4, symBinAddr: 0x10002282C, symSize: 0x2C }
  - { offsetInCU: 0xEE73, offset: 0x673BD, size: 0x8, addend: 0x0, symName: __ZN4BaseC1ENSt3__112basic_stringIcNS0_11char_traitsIcEENS0_9allocatorIcEEEEiiff, symObjAddr: 0x17F0, symBinAddr: 0x100022858, symSize: 0x54 }
  - { offsetInCU: 0xEEEB, offset: 0x67435, size: 0x8, addend: 0x0, symName: __ZN2sf4RectIiEC1Ev, symObjAddr: 0x19B8, symBinAddr: 0x1000228AC, symSize: 0x2C }
  - { offsetInCU: 0xEF17, offset: 0x67461, size: 0x8, addend: 0x0, symName: __ZN4BaseD2Ev, symObjAddr: 0x19E4, symBinAddr: 0x1000228D8, symSize: 0x198 }
  - { offsetInCU: 0xEF43, offset: 0x6748D, size: 0x8, addend: 0x0, symName: __ZN4BaseD1Ev, symObjAddr: 0x1B7C, symBinAddr: 0x100022A70, symSize: 0x2C }
  - { offsetInCU: 0xEF6F, offset: 0x674B9, size: 0x8, addend: 0x0, symName: __ZN4BaseD0Ev, symObjAddr: 0x1BA8, symBinAddr: 0x100022A9C, symSize: 0x58 }
  - { offsetInCU: 0xEF9B, offset: 0x674E5, size: 0x8, addend: 0x0, symName: __ZN4Base11closeWindowEv, symObjAddr: 0x1C00, symBinAddr: 0x100022AF4, symSize: 0xE4 }
  - { offsetInCU: 0xEFC3, offset: 0x6750D, size: 0x8, addend: 0x0, symName: __ZN4Base7getQuitEv, symObjAddr: 0x1CE4, symBinAddr: 0x100022BD8, symSize: 0x8C }
  - { offsetInCU: 0xEFEB, offset: 0x67535, size: 0x8, addend: 0x0, symName: __ZN4Base8endStateEv, symObjAddr: 0x1D70, symBinAddr: 0x100022C64, symSize: 0x8C }
  - { offsetInCU: 0xF013, offset: 0x6755D, size: 0x8, addend: 0x0, symName: __ZN4Base6updateEN2sf7Vector2IfEE, symObjAddr: 0x1DFC, symBinAddr: 0x100022CF0, symSize: 0x528 }
  - { offsetInCU: 0xF04F, offset: 0x67599, size: 0x8, addend: 0x0, symName: __ZN4Base6renderEPN2sf12RenderTargetE, symObjAddr: 0x2438, symBinAddr: 0x100023218, symSize: 0x60 }
  - { offsetInCU: 0xF08B, offset: 0x675D5, size: 0x8, addend: 0x0, symName: __ZN2sf8DrawableaSERKS0_, symObjAddr: 0x2498, symBinAddr: 0x100023278, symSize: 0x18 }
  - { offsetInCU: 0xF0C6, offset: 0x67610, size: 0x8, addend: 0x0, symName: __ZN2sf13TransformableaSERKS0_, symObjAddr: 0x24B0, symBinAddr: 0x100023290, symSize: 0x220 }
  - { offsetInCU: 0xF101, offset: 0x6764B, size: 0x8, addend: 0x0, symName: __ZN2sf11VertexArrayaSERKS0_, symObjAddr: 0x26D0, symBinAddr: 0x1000234B0, symSize: 0x128 }
  - { offsetInCU: 0xF132, offset: 0x6767C, size: 0x8, addend: 0x0, symName: __ZNSt3__16vectorIN2sf6VertexENS_9allocatorIS2_EEEaSB7v160006ERKS5_, symObjAddr: 0x27F8, symBinAddr: 0x1000235D8, symSize: 0xEC }
  - { offsetInCU: 0xF16A, offset: 0x676B4, size: 0x8, addend: 0x0, symName: __ZNSt3__16vectorIN2sf6VertexENS_9allocatorIS2_EEE19__copy_assign_allocB7v160006ERKS5_, symObjAddr: 0x28E4, symBinAddr: 0x1000236C4, symSize: 0x2C }
  - { offsetInCU: 0xF1A0, offset: 0x676EA, size: 0x8, addend: 0x0, symName: __ZNSt3__16vectorIN2sf6VertexENS_9allocatorIS2_EEE6assignIPS2_Li0EEEvT_S8_, symObjAddr: 0x2910, symBinAddr: 0x1000236F0, symSize: 0x444 }
  - { offsetInCU: 0xF249, offset: 0x67793, size: 0x8, addend: 0x0, symName: __ZNSt3__16vectorIN2sf6VertexENS_9allocatorIS2_EEE19__copy_assign_allocB7v160006ERKS5_NS_17integral_constantIbLb0EEE, symObjAddr: 0x2D54, symBinAddr: 0x100023B34, symSize: 0x14 }
  - { offsetInCU: 0xF287, offset: 0x677D1, size: 0x8, addend: 0x0, symName: __ZNSt3__16vectorIN2sf6VertexENS_9allocatorIS2_EEE18__construct_at_endIPS2_Li0EEEvT_S8_m, symObjAddr: 0x31A4, symBinAddr: 0x100023E18, symSize: 0x394 }
  - { offsetInCU: 0xF307, offset: 0x67851, size: 0x8, addend: 0x0, symName: __ZNSt3__16vectorIN2sf6VertexENS_9allocatorIS2_EEE17__destruct_at_endB7v160006EPS2_, symObjAddr: 0x3538, symBinAddr: 0x1000241AC, symSize: 0x94 }
  - { offsetInCU: 0xF34D, offset: 0x67897, size: 0x8, addend: 0x0, symName: __ZNSt3__16vectorIN2sf6VertexENS_9allocatorIS2_EEE13__vdeallocateEv, symObjAddr: 0x35CC, symBinAddr: 0x100024240, symSize: 0x18C }
  - { offsetInCU: 0xF375, offset: 0x678BF, size: 0x8, addend: 0x0, symName: __ZNSt3__16vectorIN2sf6VertexENS_9allocatorIS2_EEE11__vallocateB7v160006Em, symObjAddr: 0x3758, symBinAddr: 0x1000243CC, symSize: 0x428 }
  - { offsetInCU: 0xF3C1, offset: 0x6790B, size: 0x8, addend: 0x0, symName: __ZNKSt3__16vectorIN2sf6VertexENS_9allocatorIS2_EEE11__recommendB7v160006Em, symObjAddr: 0x3B80, symBinAddr: 0x1000247F4, symSize: 0x384 }
  - { offsetInCU: 0xF443, offset: 0x6798D, size: 0x8, addend: 0x0, symName: __ZNKSt3__114__copy_trivialclB7v160006IN2sf6VertexES3_Li0EEENS_4pairIPT_PT0_EES6_S6_S8_, symObjAddr: 0x4D98, symBinAddr: 0x1000259A0, symSize: 0x230 }
  - { offsetInCU: 0xF4B3, offset: 0x679FD, size: 0x8, addend: 0x0, symName: __ZNSt3__14pairIPN2sf6VertexES3_EC1B7v160006ERKS3_S6_, symObjAddr: 0x584C, symBinAddr: 0x100026454, symSize: 0x3C }
  - { offsetInCU: 0xF4FB, offset: 0x67A45, size: 0x8, addend: 0x0, symName: __ZNSt3__14pairIPN2sf6VertexES3_EC2B7v160006ERKS3_S6_, symObjAddr: 0x5888, symBinAddr: 0x100026490, symSize: 0x138 }
  - { offsetInCU: 0xF543, offset: 0x67A8D, size: 0x8, addend: 0x0, symName: __ZNSt3__118__unwrap_iter_implIPN2sf6VertexELb1EE8__unwrapB7v160006ES3_, symObjAddr: 0x59C0, symBinAddr: 0x1000265C8, symSize: 0x24 }
  - { offsetInCU: 0xF567, offset: 0x67AB1, size: 0x8, addend: 0x0, symName: __ZNSt3__118__unwrap_iter_implIPN2sf6VertexELb1EE8__rewrapB7v160006ES3_S3_, symObjAddr: 0x59F8, symBinAddr: 0x1000265EC, symSize: 0x58 }
  - { offsetInCU: 0xF5B3, offset: 0x67AFD, size: 0x8, addend: 0x0, symName: __ZNSt3__16vectorIN2sf6VertexENS_9allocatorIS2_EEE21_ConstructTransactionC1B7v160006ERS5_m, symObjAddr: 0x5A50, symBinAddr: 0x100026644, symSize: 0x3C }
  - { offsetInCU: 0xF5FD, offset: 0x67B47, size: 0x8, addend: 0x0, symName: __ZNSt3__16vectorIN2sf6VertexENS_9allocatorIS2_EEE21_ConstructTransactionD1B7v160006Ev, symObjAddr: 0x5FE8, symBinAddr: 0x100026BB4, symSize: 0x2C }
  - { offsetInCU: 0xF627, offset: 0x67B71, size: 0x8, addend: 0x0, symName: __ZNSt3__16vectorIN2sf6VertexENS_9allocatorIS2_EEE21_ConstructTransactionC2B7v160006ERS5_m, symObjAddr: 0x6014, symBinAddr: 0x100026BE0, symSize: 0x1D8 }
  - { offsetInCU: 0xF671, offset: 0x67BBB, size: 0x8, addend: 0x0, symName: __ZNKSt3__16vectorIN2sf6VertexENS_9allocatorIS2_EEE19__annotate_increaseB7v160006Em, symObjAddr: 0x61EC, symBinAddr: 0x100026DB8, symSize: 0x10C }
  - { offsetInCU: 0xF6A7, offset: 0x67BF1, size: 0x8, addend: 0x0, symName: __ZNSt3__129_AllocatorDestroyRangeReverseINS_9allocatorIN2sf6VertexEEEPS3_EC1B7v160006ERS4_RS5_S8_, symObjAddr: 0x65B8, symBinAddr: 0x1000270BC, symSize: 0x44 }
  - { offsetInCU: 0xF701, offset: 0x67C4B, size: 0x8, addend: 0x0, symName: __ZNSt3__116allocator_traitsINS_9allocatorIN2sf6VertexEEEE9constructB7v160006IS3_JRS3_EvEEvRS4_PT_DpOT0_, symObjAddr: 0x65FC, symBinAddr: 0x100027100, symSize: 0x34 }
  - { offsetInCU: 0xF75B, offset: 0x67CA5, size: 0x8, addend: 0x0, symName: __ZNSt3__128__exception_guard_exceptionsINS_29_AllocatorDestroyRangeReverseINS_9allocatorIN2sf6VertexEEEPS4_EEE10__completeB7v160006Ev, symObjAddr: 0x6630, symBinAddr: 0x100027134, symSize: 0x8C }
  - { offsetInCU: 0xF781, offset: 0x67CCB, size: 0x8, addend: 0x0, symName: __ZNSt3__128__exception_guard_exceptionsINS_29_AllocatorDestroyRangeReverseINS_9allocatorIN2sf6VertexEEEPS4_EEED1B7v160006Ev, symObjAddr: 0x66BC, symBinAddr: 0x1000271C0, symSize: 0x2C }
  - { offsetInCU: 0xF7AB, offset: 0x67CF5, size: 0x8, addend: 0x0, symName: __ZNSt3__128__exception_guard_exceptionsINS_29_AllocatorDestroyRangeReverseINS_9allocatorIN2sf6VertexEEEPS4_EEEC1B7v160006ES7_, symObjAddr: 0x66E8, symBinAddr: 0x1000271EC, symSize: 0x34 }
  - { offsetInCU: 0xF7E5, offset: 0x67D2F, size: 0x8, addend: 0x0, symName: __ZNSt3__128__exception_guard_exceptionsINS_29_AllocatorDestroyRangeReverseINS_9allocatorIN2sf6VertexEEEPS4_EEEC2B7v160006ES7_, symObjAddr: 0x671C, symBinAddr: 0x100027220, symSize: 0xA4 }
  - { offsetInCU: 0xF81F, offset: 0x67D69, size: 0x8, addend: 0x0, symName: __ZNSt3__129_AllocatorDestroyRangeReverseINS_9allocatorIN2sf6VertexEEEPS3_EC2B7v160006ERS4_RS5_S8_, symObjAddr: 0x67C0, symBinAddr: 0x1000272C4, symSize: 0x104 }
  - { offsetInCU: 0xF879, offset: 0x67DC3, size: 0x8, addend: 0x0, symName: __ZNSt3__19allocatorIN2sf6VertexEE9constructB7v160006IS2_JRS2_EEEvPT_DpOT0_, symObjAddr: 0x68C4, symBinAddr: 0x1000273C8, symSize: 0x34 }
  - { offsetInCU: 0xF8D1, offset: 0x67E1B, size: 0x8, addend: 0x0, symName: __ZNSt3__128__exception_guard_exceptionsINS_29_AllocatorDestroyRangeReverseINS_9allocatorIN2sf6VertexEEEPS4_EEED2B7v160006Ev, symObjAddr: 0x68F8, symBinAddr: 0x1000273FC, symSize: 0xA8 }
  - { offsetInCU: 0xF8FB, offset: 0x67E45, size: 0x8, addend: 0x0, symName: __ZNKSt3__129_AllocatorDestroyRangeReverseINS_9allocatorIN2sf6VertexEEEPS3_EclB7v160006Ev, symObjAddr: 0x69A0, symBinAddr: 0x1000274A4, symSize: 0x39C }
  - { offsetInCU: 0xF922, offset: 0x67E6C, size: 0x8, addend: 0x0, symName: __ZNSt3__116reverse_iteratorIPN2sf6VertexEEC1B7v160006ES3_, symObjAddr: 0x6FF4, symBinAddr: 0x100027AF8, symSize: 0x34 }
  - { offsetInCU: 0xF95B, offset: 0x67EA5, size: 0x8, addend: 0x0, symName: __ZNSt3__116reverse_iteratorIPN2sf6VertexEEppB7v160006Ev, symObjAddr: 0x70C0, symBinAddr: 0x100027B98, symSize: 0x6C }
  - { offsetInCU: 0xF981, offset: 0x67ECB, size: 0x8, addend: 0x0, symName: __ZNKSt3__116reverse_iteratorIPN2sf6VertexEE4baseB7v160006Ev, symObjAddr: 0x712C, symBinAddr: 0x100027C04, symSize: 0x64 }
  - { offsetInCU: 0xF9AC, offset: 0x67EF6, size: 0x8, addend: 0x0, symName: __ZNSt3__119__to_address_helperINS_16reverse_iteratorIPN2sf6VertexEEEvE6__callB7v160006ERKS5_, symObjAddr: 0x71A4, symBinAddr: 0x100027C68, symSize: 0x58 }
  - { offsetInCU: 0xF9D0, offset: 0x67F1A, size: 0x8, addend: 0x0, symName: __ZNKSt3__116reverse_iteratorIPN2sf6VertexEEptB7v160006Ev, symObjAddr: 0x71FC, symBinAddr: 0x100027CC0, symSize: 0x24 }
  - { offsetInCU: 0xF9F6, offset: 0x67F40, size: 0x8, addend: 0x0, symName: __ZNKSt3__116reverse_iteratorIPN2sf6VertexEEdeB7v160006Ev, symObjAddr: 0x7220, symBinAddr: 0x100027CE4, symSize: 0x74 }
  - { offsetInCU: 0xFA2A, offset: 0x67F74, size: 0x8, addend: 0x0, symName: __ZNSt3__116reverse_iteratorIPN2sf6VertexEEC2B7v160006ES3_, symObjAddr: 0x7294, symBinAddr: 0x100027D58, symSize: 0xB8 }
  - { offsetInCU: 0xFA63, offset: 0x67FAD, size: 0x8, addend: 0x0, symName: __ZNSt3__16vectorIN2sf6VertexENS_9allocatorIS2_EEE21_ConstructTransactionD2B7v160006Ev, symObjAddr: 0x7384, symBinAddr: 0x100027E10, symSize: 0x278 }
  - { offsetInCU: 0xFA8D, offset: 0x67FD7, size: 0x8, addend: 0x0, symName: __ZNKSt3__16vectorIN2sf6VertexENS_9allocatorIS2_EEE17__annotate_shrinkB7v160006Em, symObjAddr: 0x75FC, symBinAddr: 0x100028088, symSize: 0xF8 }
  - { offsetInCU: 0xFAC3, offset: 0x6800D, size: 0x8, addend: 0x0, symName: __ZNSt3__16vectorIN2sf6VertexENS_9allocatorIS2_EEE27__invalidate_iterators_pastB7v160006EPS2_, symObjAddr: 0x76F4, symBinAddr: 0x100028180, symSize: 0x14 }
  - { offsetInCU: 0xFAFB, offset: 0x68045, size: 0x8, addend: 0x0, symName: __ZNSt3__16vectorIN2sf6VertexENS_9allocatorIS2_EEE5clearB7v160006Ev, symObjAddr: 0x7830, symBinAddr: 0x100028194, symSize: 0x74 }
  - { offsetInCU: 0xFB31, offset: 0x6807B, size: 0x8, addend: 0x0, symName: __ZNSt3__16vectorIN2sf6VertexENS_9allocatorIS2_EEE9__end_capB7v160006Ev, symObjAddr: 0x78D8, symBinAddr: 0x100028208, symSize: 0x28 }
  - { offsetInCU: 0xFB57, offset: 0x680A1, size: 0x8, addend: 0x0, symName: __ZNSt3__117__compressed_pairIPN2sf6VertexENS_9allocatorIS2_EEE5firstB7v160006Ev, symObjAddr: 0x7A60, symBinAddr: 0x100028230, symSize: 0x24 }
  - { offsetInCU: 0xFB7D, offset: 0x680C7, size: 0x8, addend: 0x0, symName: __ZNSt3__122__compressed_pair_elemIPN2sf6VertexELi0ELb0EE5__getB7v160006Ev, symObjAddr: 0x7A84, symBinAddr: 0x100028254, symSize: 0x14 }
  - { offsetInCU: 0xFBA3, offset: 0x680ED, size: 0x8, addend: 0x0, symName: __ZNKSt3__16vectorIN2sf6VertexENS_9allocatorIS2_EEE8max_sizeEv, symObjAddr: 0x7A98, symBinAddr: 0x100028268, symSize: 0x328 }
  - { offsetInCU: 0xFBCC, offset: 0x68116, size: 0x8, addend: 0x0, symName: __ZNKSt3__16vectorIN2sf6VertexENS_9allocatorIS2_EEE20__throw_length_errorB7v160006Ev, symObjAddr: 0x7DC0, symBinAddr: 0x100028590, symSize: 0x20 }
  - { offsetInCU: 0xFBF2, offset: 0x6813C, size: 0x8, addend: 0x0, symName: __ZNKSt3__16vectorIN2sf6VertexENS_9allocatorIS2_EEE14__annotate_newB7v160006Em, symObjAddr: 0x806C, symBinAddr: 0x10002883C, symSize: 0xF0 }
  - { offsetInCU: 0xFC32, offset: 0x6817C, size: 0x8, addend: 0x0, symName: __ZNSt3__116allocator_traitsINS_9allocatorIN2sf6VertexEEEE8max_sizeB7v160006IS4_vEEmRKS4_, symObjAddr: 0x8188, symBinAddr: 0x100028958, symSize: 0x24 }
  - { offsetInCU: 0xFC61, offset: 0x681AB, size: 0x8, addend: 0x0, symName: __ZNKSt3__16vectorIN2sf6VertexENS_9allocatorIS2_EEE7__allocB7v160006Ev, symObjAddr: 0x81AC, symBinAddr: 0x10002897C, symSize: 0x28 }
  - { offsetInCU: 0xFC87, offset: 0x681D1, size: 0x8, addend: 0x0, symName: __ZNSt3__114numeric_limitsIlE3maxB7v160006Ev, symObjAddr: 0x81D4, symBinAddr: 0x1000289A4, symSize: 0x14 }
  - { offsetInCU: 0xFC9B, offset: 0x681E5, size: 0x8, addend: 0x0, symName: __ZNKSt3__19allocatorIN2sf6VertexEE8max_sizeB7v160006Ev, symObjAddr: 0x848C, symBinAddr: 0x100028BA0, symSize: 0x18 }
  - { offsetInCU: 0xFCC1, offset: 0x6820B, size: 0x8, addend: 0x0, symName: __ZNKSt3__117__compressed_pairIPN2sf6VertexENS_9allocatorIS2_EEE6secondB7v160006Ev, symObjAddr: 0x84A4, symBinAddr: 0x100028BB8, symSize: 0x24 }
  - { offsetInCU: 0xFCE7, offset: 0x68231, size: 0x8, addend: 0x0, symName: __ZNKSt3__122__compressed_pair_elemINS_9allocatorIN2sf6VertexEEELi1ELb1EE5__getB7v160006Ev, symObjAddr: 0x84C8, symBinAddr: 0x100028BDC, symSize: 0x14 }
  - { offsetInCU: 0xFD0D, offset: 0x68257, size: 0x8, addend: 0x0, symName: __ZNSt3__123__libcpp_numeric_limitsIlLb1EE3maxB7v160006Ev, symObjAddr: 0x84DC, symBinAddr: 0x100028BF0, symSize: 0x8 }
  - { offsetInCU: 0xFD21, offset: 0x6826B, size: 0x8, addend: 0x0, symName: __ZNSt12length_errorC1B7v160006EPKc, symObjAddr: 0x854C, symBinAddr: 0x100028C60, symSize: 0x34 }
  - { offsetInCU: 0xFD5A, offset: 0x682A4, size: 0x8, addend: 0x0, symName: __ZNSt12length_errorC2B7v160006EPKc, symObjAddr: 0x8580, symBinAddr: 0x100028C94, symSize: 0x8C }
  - { offsetInCU: 0xFD93, offset: 0x682DD, size: 0x8, addend: 0x0, symName: __ZNSt3__19allocatorIN2sf6VertexEE8allocateB7v160006Em, symObjAddr: 0x860C, symBinAddr: 0x100028D20, symSize: 0x90 }
  - { offsetInCU: 0xFDC8, offset: 0x68312, size: 0x8, addend: 0x0, symName: __ZN2sf6SpriteD2Ev, symObjAddr: 0x9218, symBinAddr: 0x100028DB0, symSize: 0x60 }
  - { offsetInCU: 0xFDF4, offset: 0x6833E, size: 0x8, addend: 0x0, symName: __ZThn8_N2sf6SpriteD1Ev, symObjAddr: 0x9278, symBinAddr: 0x100028E10, symSize: 0x1C }
  - { offsetInCU: 0xFE0A, offset: 0x68354, size: 0x8, addend: 0x0, symName: __ZN2sf4RectIiEC2Ev, symObjAddr: 0x96B8, symBinAddr: 0x100028E2C, symSize: 0x1AC }
  - { offsetInCU: 0x3B, offset: 0x68432, size: 0x8, addend: 0x0, symName: _.str, symObjAddr: 0x4820, symBinAddr: 0x100049240, symSize: 0x0 }
  - { offsetInCU: 0x6B, offset: 0x68462, size: 0x8, addend: 0x0, symName: _.str.1, symObjAddr: 0x4840, symBinAddr: 0x100049260, symSize: 0x0 }
  - { offsetInCU: 0x88, offset: 0x6847F, size: 0x8, addend: 0x0, symName: _.str.2, symObjAddr: 0x4880, symBinAddr: 0x1000492A0, symSize: 0x0 }
  - { offsetInCU: 0xA5, offset: 0x6849C, size: 0x8, addend: 0x0, symName: _.str.3, symObjAddr: 0x48C0, symBinAddr: 0x1000492E0, symSize: 0x0 }
  - { offsetInCU: 0xC2, offset: 0x684B9, size: 0x8, addend: 0x0, symName: _.str.4, symObjAddr: 0x4900, symBinAddr: 0x100049320, symSize: 0x0 }
  - { offsetInCU: 0xDF, offset: 0x684D6, size: 0x8, addend: 0x0, symName: _.str.5, symObjAddr: 0x4940, symBinAddr: 0x100049360, symSize: 0x0 }
  - { offsetInCU: 0xF0, offset: 0x684E7, size: 0x8, addend: 0x0, symName: _.str.6, symObjAddr: 0x4980, symBinAddr: 0x1000493A0, symSize: 0x0 }
  - { offsetInCU: 0x10D, offset: 0x68504, size: 0x8, addend: 0x0, symName: _.str.7, symObjAddr: 0x49A0, symBinAddr: 0x1000493C0, symSize: 0x0 }
  - { offsetInCU: 0x12A, offset: 0x68521, size: 0x8, addend: 0x0, symName: _.str.8, symObjAddr: 0x49C0, symBinAddr: 0x1000493E0, symSize: 0x0 }
  - { offsetInCU: 0x13B, offset: 0x68532, size: 0x8, addend: 0x0, symName: _.str.9, symObjAddr: 0x49E0, symBinAddr: 0x100049400, symSize: 0x0 }
  - { offsetInCU: 0x158, offset: 0x6854F, size: 0x8, addend: 0x0, symName: _.str.10, symObjAddr: 0x4A00, symBinAddr: 0x100049420, symSize: 0x0 }
  - { offsetInCU: 0x169, offset: 0x68560, size: 0x8, addend: 0x0, symName: _.str.11, symObjAddr: 0x4A20, symBinAddr: 0x100049440, symSize: 0x0 }
  - { offsetInCU: 0x186, offset: 0x6857D, size: 0x8, addend: 0x0, symName: _.str.12, symObjAddr: 0x4A40, symBinAddr: 0x100049460, symSize: 0x0 }
  - { offsetInCU: 0x1A3, offset: 0x6859A, size: 0x8, addend: 0x0, symName: _.str.13, symObjAddr: 0x4A60, symBinAddr: 0x100049480, symSize: 0x0 }
  - { offsetInCU: 0xEE5B, offset: 0x77252, size: 0x8, addend: 0x0, symName: __ZN7OptionsC2Ev, symObjAddr: 0x0, symBinAddr: 0x100029070, symSize: 0x7C0 }
  - { offsetInCU: 0xEE8D, offset: 0x77284, size: 0x8, addend: 0x0, symName: __ZN7OptionsC1Ev, symObjAddr: 0x800, symBinAddr: 0x100029830, symSize: 0x2C }
  - { offsetInCU: 0xEEB9, offset: 0x772B0, size: 0x8, addend: 0x0, symName: __ZN7OptionsD2Ev, symObjAddr: 0x82C, symBinAddr: 0x10002985C, symSize: 0x1D0 }
  - { offsetInCU: 0xEEE5, offset: 0x772DC, size: 0x8, addend: 0x0, symName: __ZN7OptionsD1Ev, symObjAddr: 0x9FC, symBinAddr: 0x100029A2C, symSize: 0x2C }
  - { offsetInCU: 0xEF11, offset: 0x77308, size: 0x8, addend: 0x0, symName: __ZN7OptionsD0Ev, symObjAddr: 0xA28, symBinAddr: 0x100029A58, symSize: 0x58 }
  - { offsetInCU: 0xEF3D, offset: 0x77334, size: 0x8, addend: 0x0, symName: __ZN7Options10reset_quitEv, symObjAddr: 0xA80, symBinAddr: 0x100029AB0, symSize: 0x88 }
  - { offsetInCU: 0xEF65, offset: 0x7735C, size: 0x8, addend: 0x0, symName: __ZN7Options11return_quitEv, symObjAddr: 0xB08, symBinAddr: 0x100029B38, symSize: 0x8C }
  - { offsetInCU: 0xEF8D, offset: 0x77384, size: 0x8, addend: 0x0, symName: __ZN7Options6updateEN2sf7Vector2IfEE, symObjAddr: 0xB94, symBinAddr: 0x100029BC4, symSize: 0x1460 }
  - { offsetInCU: 0xEFC9, offset: 0x773C0, size: 0x8, addend: 0x0, symName: __ZN7Options14render_optionsEPN2sf12RenderTargetE, symObjAddr: 0x213C, symBinAddr: 0x10002B024, symSize: 0x1DC }
  - { offsetInCU: 0x3B, offset: 0x77436, size: 0x8, addend: 0x0, symName: _.str, symObjAddr: 0x4600, symBinAddr: 0x100049500, symSize: 0x0 }
  - { offsetInCU: 0x6B, offset: 0x77466, size: 0x8, addend: 0x0, symName: _.str.1, symObjAddr: 0x4620, symBinAddr: 0x100049520, symSize: 0x0 }
  - { offsetInCU: 0x88, offset: 0x77483, size: 0x8, addend: 0x0, symName: _.str.2, symObjAddr: 0x4660, symBinAddr: 0x100049560, symSize: 0x0 }
  - { offsetInCU: 0xA5, offset: 0x774A0, size: 0x8, addend: 0x0, symName: _.str.3, symObjAddr: 0x46C0, symBinAddr: 0x1000495C0, symSize: 0x0 }
  - { offsetInCU: 0xB6, offset: 0x774B1, size: 0x8, addend: 0x0, symName: _.str.4, symObjAddr: 0x4720, symBinAddr: 0x100049620, symSize: 0x0 }
  - { offsetInCU: 0xC7, offset: 0x774C2, size: 0x8, addend: 0x0, symName: _.str.5, symObjAddr: 0x4780, symBinAddr: 0x100049680, symSize: 0x0 }
  - { offsetInCU: 0xD8, offset: 0x774D3, size: 0x8, addend: 0x0, symName: _.str.6, symObjAddr: 0x47E0, symBinAddr: 0x1000496E0, symSize: 0x0 }
  - { offsetInCU: 0xF5, offset: 0x774F0, size: 0x8, addend: 0x0, symName: _.str.7, symObjAddr: 0x4840, symBinAddr: 0x100049740, symSize: 0x0 }
  - { offsetInCU: 0x112, offset: 0x7750D, size: 0x8, addend: 0x0, symName: _.str.8, symObjAddr: 0x4880, symBinAddr: 0x100049780, symSize: 0x0 }
  - { offsetInCU: 0x29A1, offset: 0x79D9C, size: 0x8, addend: 0x0, symName: __ZN5GuideC2Ev, symObjAddr: 0x0, symBinAddr: 0x10002B298, symSize: 0x1178 }
  - { offsetInCU: 0x29CE, offset: 0x79DC9, size: 0x8, addend: 0x0, symName: __ZN5GuideC1Ev, symObjAddr: 0x1394, symBinAddr: 0x10002C410, symSize: 0x2C }
  - { offsetInCU: 0x29FA, offset: 0x79DF5, size: 0x8, addend: 0x0, symName: __ZN5GuideD2Ev, symObjAddr: 0x13C0, symBinAddr: 0x10002C43C, symSize: 0x2FC }
  - { offsetInCU: 0x2A26, offset: 0x79E21, size: 0x8, addend: 0x0, symName: __ZN5GuideD1Ev, symObjAddr: 0x16BC, symBinAddr: 0x10002C738, symSize: 0x2C }
  - { offsetInCU: 0x2A52, offset: 0x79E4D, size: 0x8, addend: 0x0, symName: __ZN5GuideD0Ev, symObjAddr: 0x16E8, symBinAddr: 0x10002C764, symSize: 0x58 }
  - { offsetInCU: 0x2A7E, offset: 0x79E79, size: 0x8, addend: 0x0, symName: __ZN5Guide10reset_quitEv, symObjAddr: 0x1740, symBinAddr: 0x10002C7BC, symSize: 0x88 }
  - { offsetInCU: 0x2AA6, offset: 0x79EA1, size: 0x8, addend: 0x0, symName: __ZN5Guide11return_quitEv, symObjAddr: 0x17C8, symBinAddr: 0x10002C844, symSize: 0x8C }
  - { offsetInCU: 0x2ACE, offset: 0x79EC9, size: 0x8, addend: 0x0, symName: __ZN5Guide6updateEN2sf7Vector2IfEE, symObjAddr: 0x1854, symBinAddr: 0x10002C8D0, symSize: 0x39C }
  - { offsetInCU: 0x2B0A, offset: 0x79F05, size: 0x8, addend: 0x0, symName: __ZN5Guide12render_guideEPN2sf12RenderTargetE, symObjAddr: 0x1BF0, symBinAddr: 0x10002CC6C, symSize: 0x188 }
  - { offsetInCU: 0x3B, offset: 0x79F7B, size: 0x8, addend: 0x0, symName: _.str, symObjAddr: 0xDBA0, symBinAddr: 0x100049800, symSize: 0x0 }
  - { offsetInCU: 0x6B, offset: 0x79FAB, size: 0x8, addend: 0x0, symName: _.str.1, symObjAddr: 0xDC00, symBinAddr: 0x100049860, symSize: 0x0 }
  - { offsetInCU: 0x88, offset: 0x79FC8, size: 0x8, addend: 0x0, symName: _.str.2, symObjAddr: 0xDC40, symBinAddr: 0x1000498A0, symSize: 0x0 }
  - { offsetInCU: 0xA5, offset: 0x79FE5, size: 0x8, addend: 0x0, symName: _.str.3, symObjAddr: 0xDC80, symBinAddr: 0x1000498E0, symSize: 0x0 }
  - { offsetInCU: 0xB6, offset: 0x79FF6, size: 0x8, addend: 0x0, symName: _.str.4, symObjAddr: 0xDCC0, symBinAddr: 0x100049920, symSize: 0x0 }
  - { offsetInCU: 0xD3, offset: 0x7A013, size: 0x8, addend: 0x0, symName: _.str.5, symObjAddr: 0xDD20, symBinAddr: 0x100049980, symSize: 0x0 }
  - { offsetInCU: 0xF0, offset: 0x7A030, size: 0x8, addend: 0x0, symName: _.str.6, symObjAddr: 0xDE00, symBinAddr: 0x100049A60, symSize: 0x0 }
  - { offsetInCU: 0x10D, offset: 0x7A04D, size: 0x8, addend: 0x0, symName: _.str.7, symObjAddr: 0xDE60, symBinAddr: 0x100049AC0, symSize: 0x0 }
  - { offsetInCU: 0x12A, offset: 0x7A06A, size: 0x8, addend: 0x0, symName: _.str.8, symObjAddr: 0xDEE0, symBinAddr: 0x100049B40, symSize: 0x0 }
  - { offsetInCU: 0xE472, offset: 0x883B2, size: 0x8, addend: 0x0, symName: __ZNSt3__119__debug_db_insert_cB7v160006INS_6vectorINS_12basic_stringIcNS_11char_traitsIcEENS_9allocatorIcEEEENS5_IS7_EEEEEEvPT_, symObjAddr: 0x2D04, symBinAddr: 0x10002F5A4, symSize: 0x10 }
  - { offsetInCU: 0xE4A5, offset: 0x883E5, size: 0x8, addend: 0x0, symName: __ZNSt3__118__debug_db_erase_cB7v160006INS_6vectorINS_12basic_stringIcNS_11char_traitsIcEENS_9allocatorIcEEEENS5_IS7_EEEEEEvPT_, symObjAddr: 0x3408, symBinAddr: 0x10002FCA8, symSize: 0x10 }
  - { offsetInCU: 0xE4D8, offset: 0x88418, size: 0x8, addend: 0x0, symName: __ZNSt3__112__to_addressB7v160006INS_12basic_stringIcNS_11char_traitsIcEENS_9allocatorIcEEEEEEPT_S8_, symObjAddr: 0x3668, symBinAddr: 0x10002FEFC, symSize: 0x14 }
  - { offsetInCU: 0xE50F, offset: 0x8844F, size: 0x8, addend: 0x0, symName: __ZNSt3__119__allocate_at_leastB7v160006INS_9allocatorINS_12basic_stringIcNS_11char_traitsIcEENS1_IcEEEEEEEENS_19__allocation_resultINS_16allocator_traitsIT_E7pointerEEERSA_m, symObjAddr: 0x83A0, symBinAddr: 0x100032330, symSize: 0x28C }
  - { offsetInCU: 0xE557, offset: 0x88497, size: 0x8, addend: 0x0, symName: __ZNSt3__142__uninitialized_allocator_move_if_noexceptB7v160006INS_9allocatorINS_12basic_stringIcNS_11char_traitsIcEENS1_IcEEEEEENS_16reverse_iteratorIPS6_EESA_SA_EET2_RT_T0_T1_SB_, symObjAddr: 0x88F4, symBinAddr: 0x100032800, symSize: 0x558 }
  - { offsetInCU: 0xE612, offset: 0x88552, size: 0x8, addend: 0x0, symName: __ZNSt3__14swapB7v160006IPNS_12basic_stringIcNS_11char_traitsIcEENS_9allocatorIcEEEEEEvRT_S9_, symObjAddr: 0x8EE4, symBinAddr: 0x100032DF0, symSize: 0x134 }
  - { offsetInCU: 0xE666, offset: 0x885A6, size: 0x8, addend: 0x0, symName: __ZNSt3__125__debug_db_invalidate_allB7v160006INS_6vectorINS_12basic_stringIcNS_11char_traitsIcEENS_9allocatorIcEEEENS5_IS7_EEEEEEvPT_, symObjAddr: 0x9108, symBinAddr: 0x100033014, symSize: 0x10 }
  - { offsetInCU: 0xE699, offset: 0x885D9, size: 0x8, addend: 0x0, symName: __ZNSt3__122__make_exception_guardB7v160006INS_29_AllocatorDestroyRangeReverseINS_9allocatorINS_12basic_stringIcNS_11char_traitsIcEENS2_IcEEEEEENS_16reverse_iteratorIPS7_EEEEEENS_28__exception_guard_exceptionsIT_EESE_, symObjAddr: 0x9118, symBinAddr: 0x100033024, symSize: 0x1F8 }
  - { offsetInCU: 0xE6D2, offset: 0x88612, size: 0x8, addend: 0x0, symName: __ZNSt3__1neB7v160006IPNS_12basic_stringIcNS_11char_traitsIcEENS_9allocatorIcEEEES7_EEbRKNS_16reverse_iteratorIT_EERKNS8_IT0_EE, symObjAddr: 0x9354, symBinAddr: 0x100033260, symSize: 0x48 }
  - { offsetInCU: 0xE721, offset: 0x88661, size: 0x8, addend: 0x0, symName: __ZNSt3__112__to_addressB7v160006INS_16reverse_iteratorIPNS_12basic_stringIcNS_11char_traitsIcEENS_9allocatorIcEEEEEEvEENS_5decayIDTclsr19__to_address_helperIT_EE6__callclsr3stdE7declvalIRKSB_EEEEE4typeESD_, symObjAddr: 0x93D0, symBinAddr: 0x1000332DC, symSize: 0x24 }
  - { offsetInCU: 0xE783, offset: 0x886C3, size: 0x8, addend: 0x0, symName: __ZNSt3__119__allocator_destroyB7v160006INS_9allocatorINS_12basic_stringIcNS_11char_traitsIcEENS1_IcEEEEEENS_16reverse_iteratorINS8_IPS6_EEEESB_EEvRT_T0_T1_, symObjAddr: 0x9C64, symBinAddr: 0x100033B70, symSize: 0x70 }
  - { offsetInCU: 0xE7EC, offset: 0x8872C, size: 0x8, addend: 0x0, symName: __ZNSt3__1neB7v160006INS_16reverse_iteratorIPNS_12basic_stringIcNS_11char_traitsIcEENS_9allocatorIcEEEEEES9_EEbRKNS1_IT_EERKNS1_IT0_EE, symObjAddr: 0x9F1C, symBinAddr: 0x100033E28, symSize: 0x2CC }
  - { offsetInCU: 0xE83D, offset: 0x8877D, size: 0x8, addend: 0x0, symName: __ZNSt3__112__to_addressB7v160006INS_16reverse_iteratorINS1_IPNS_12basic_stringIcNS_11char_traitsIcEENS_9allocatorIcEEEEEEEEvEENS_5decayIDTclsr19__to_address_helperIT_EE6__callclsr3stdE7declvalIRKSC_EEEEE4typeESE_, symObjAddr: 0xA1E8, symBinAddr: 0x1000340F4, symSize: 0x24 }
  - { offsetInCU: 0xE89F, offset: 0x887DF, size: 0x8, addend: 0x0, symName: __ZNSt3__122__make_exception_guardB7v160006INS_6vectorINS_12basic_stringIcNS_11char_traitsIcEENS_9allocatorIcEEEENS5_IS7_EEE16__destroy_vectorEEENS_28__exception_guard_exceptionsIT_EESC_, symObjAddr: 0xB340, symBinAddr: 0x10003524C, symSize: 0x278 }
  - { offsetInCU: 0xE8DA, offset: 0x8881A, size: 0x8, addend: 0x0, symName: __ZNSt3__130__uninitialized_allocator_copyB7v160006INS_9allocatorINS_12basic_stringIcNS_11char_traitsIcEENS1_IcEEEEEEPS6_S8_S8_EET2_RT_T0_T1_S9_, symObjAddr: 0xC324, symBinAddr: 0x100036230, symSize: 0x534 }
  - { offsetInCU: 0xE98C, offset: 0x888CC, size: 0x8, addend: 0x0, symName: __ZNSt3__122__make_exception_guardB7v160006INS_29_AllocatorDestroyRangeReverseINS_9allocatorINS_12basic_stringIcNS_11char_traitsIcEENS2_IcEEEEEEPS7_EEEENS_28__exception_guard_exceptionsIT_EESC_, symObjAddr: 0xC858, symBinAddr: 0x100036764, symSize: 0x1F8 }
  - { offsetInCU: 0xE9C5, offset: 0x88905, size: 0x8, addend: 0x0, symName: __ZNSt3__119__allocator_destroyB7v160006INS_9allocatorINS_12basic_stringIcNS_11char_traitsIcEENS1_IcEEEEEENS_16reverse_iteratorIPS6_EESA_EEvRT_T0_T1_, symObjAddr: 0xD1D0, symBinAddr: 0x1000370DC, symSize: 0x2B8 }
  - { offsetInCU: 0xFBDE, offset: 0x89B1E, size: 0x8, addend: 0x0, symName: __ZN11FirstScenes6updateERKfPN2sf12RenderWindowE, symObjAddr: 0x1D34, symBinAddr: 0x10002E978, symSize: 0x79C }
  - { offsetInCU: 0xFC04, offset: 0x89B44, size: 0x8, addend: 0x0, symName: __ZZN11FirstScenes6updateERKfPN2sf12RenderWindowEE24enterKeyPressedLastFrame, symObjAddr: 0x8D680, symBinAddr: 0x10005F1E0, symSize: 0x0 }
  - { offsetInCU: 0xFC53, offset: 0x89B93, size: 0x8, addend: 0x0, symName: _.str.9, symObjAddr: 0xDF20, symBinAddr: 0x100049B80, symSize: 0x0 }
  - { offsetInCU: 0xFC70, offset: 0x89BB0, size: 0x8, addend: 0x0, symName: _.str.10, symObjAddr: 0xDF60, symBinAddr: 0x100049BC0, symSize: 0x0 }
  - { offsetInCU: 0xFC8F, offset: 0x89BCF, size: 0x8, addend: 0x0, symName: _.str.11, symObjAddr: 0xDFC0, symBinAddr: 0x100049C20, symSize: 0x0 }
  - { offsetInCU: 0xFCB8, offset: 0x89BF8, size: 0x8, addend: 0x0, symName: __ZNSt3__16vectorINS_12basic_stringIcNS_11char_traitsIcEENS_9allocatorIcEEEENS4_IS6_EEE26__swap_out_circular_bufferERNS_14__split_bufferIS6_RS7_EE, symObjAddr: 0x6E88, symBinAddr: 0x100031440, symSize: 0x574 }
  - { offsetInCU: 0x11A90, offset: 0x8B9D0, size: 0x8, addend: 0x0, symName: __ZN11FirstScenesC2EPN2sf12RenderWindowE, symObjAddr: 0x0, symBinAddr: 0x10002CE8C, symSize: 0x156C }
  - { offsetInCU: 0x11ACD, offset: 0x8BA0D, size: 0x8, addend: 0x0, symName: __ZNSt3__16vectorINS_12basic_stringIcNS_11char_traitsIcEENS_9allocatorIcEEEENS4_IS6_EEEC1B7v160006Ev, symObjAddr: 0x15A8, symBinAddr: 0x10002E3F8, symSize: 0x2C }
  - { offsetInCU: 0x11AFC, offset: 0x8BA3C, size: 0x8, addend: 0x0, symName: __ZNSt3__16vectorINS_12basic_stringIcNS_11char_traitsIcEENS_9allocatorIcEEEENS4_IS6_EEE9push_backB7v160006EOS6_, symObjAddr: 0x1788, symBinAddr: 0x10002E424, symSize: 0xE0 }
  - { offsetInCU: 0x11B34, offset: 0x8BA74, size: 0x8, addend: 0x0, symName: __ZNSt3__16vectorINS_12basic_stringIcNS_11char_traitsIcEENS_9allocatorIcEEEENS4_IS6_EEEC1ERKS8_, symObjAddr: 0x1868, symBinAddr: 0x10002E504, symSize: 0x34 }
  - { offsetInCU: 0x11B70, offset: 0x8BAB0, size: 0x8, addend: 0x0, symName: __ZNSt3__16vectorINS_12basic_stringIcNS_11char_traitsIcEENS_9allocatorIcEEEENS4_IS6_EEED1B7v160006Ev, symObjAddr: 0x189C, symBinAddr: 0x10002E538, symSize: 0x2C }
  - { offsetInCU: 0x11B9A, offset: 0x8BADA, size: 0x8, addend: 0x0, symName: __ZN11FirstScenesC1EPN2sf12RenderWindowE, symObjAddr: 0x1920, symBinAddr: 0x10002E564, symSize: 0x34 }
  - { offsetInCU: 0x11BD5, offset: 0x8BB15, size: 0x8, addend: 0x0, symName: __ZN11FirstScenesD2Ev, symObjAddr: 0x1954, symBinAddr: 0x10002E598, symSize: 0x2D0 }
  - { offsetInCU: 0x11C01, offset: 0x8BB41, size: 0x8, addend: 0x0, symName: __ZN11FirstScenesD1Ev, symObjAddr: 0x1C24, symBinAddr: 0x10002E868, symSize: 0x2C }
  - { offsetInCU: 0x11C2D, offset: 0x8BB6D, size: 0x8, addend: 0x0, symName: __ZN11FirstScenesD0Ev, symObjAddr: 0x1C50, symBinAddr: 0x10002E894, symSize: 0x58 }
  - { offsetInCU: 0x11C59, offset: 0x8BB99, size: 0x8, addend: 0x0, symName: __ZN11FirstScenes8endStateEv, symObjAddr: 0x1CA8, symBinAddr: 0x10002E8EC, symSize: 0x8C }
  - { offsetInCU: 0x11C81, offset: 0x8BBC1, size: 0x8, addend: 0x0, symName: __ZNKSt3__16vectorINS_12basic_stringIcNS_11char_traitsIcEENS_9allocatorIcEEEENS4_IS6_EEE4sizeB7v160006Ev, symObjAddr: 0x24D0, symBinAddr: 0x10002F114, symSize: 0xB0 }
  - { offsetInCU: 0x11CA7, offset: 0x8BBE7, size: 0x8, addend: 0x0, symName: __ZN11FirstScenes6renderEPN2sf12RenderTargetE, symObjAddr: 0x2580, symBinAddr: 0x10002F1C4, symSize: 0xC8 }
  - { offsetInCU: 0x11CDE, offset: 0x8BC1E, size: 0x8, addend: 0x0, symName: __ZNSt3__16vectorINS_12basic_stringIcNS_11char_traitsIcEENS_9allocatorIcEEEENS4_IS6_EEEC2B7v160006Ev, symObjAddr: 0x29EC, symBinAddr: 0x10002F28C, symSize: 0x2DC }
  - { offsetInCU: 0x11D13, offset: 0x8BC53, size: 0x8, addend: 0x0, symName: __ZNSt3__117__compressed_pairIPNS_12basic_stringIcNS_11char_traitsIcEENS_9allocatorIcEEEENS4_IS6_EEEC1B7v160006IDnNS_18__default_init_tagEEEOT_OT0_, symObjAddr: 0x2CC8, symBinAddr: 0x10002F568, symSize: 0x3C }
  - { offsetInCU: 0x11D6D, offset: 0x8BCAD, size: 0x8, addend: 0x0, symName: __ZNSt3__117__compressed_pairIPNS_12basic_stringIcNS_11char_traitsIcEENS_9allocatorIcEEEENS4_IS6_EEEC2B7v160006IDnNS_18__default_init_tagEEEOT_OT0_, symObjAddr: 0x2D14, symBinAddr: 0x10002F5B4, symSize: 0x40 }
  - { offsetInCU: 0x11DC7, offset: 0x8BD07, size: 0x8, addend: 0x0, symName: __ZNSt3__122__compressed_pair_elemIPNS_12basic_stringIcNS_11char_traitsIcEENS_9allocatorIcEEEELi0ELb0EEC2B7v160006IDnvEEOT_, symObjAddr: 0x2D54, symBinAddr: 0x10002F5F4, symSize: 0x64 }
  - { offsetInCU: 0x11E0A, offset: 0x8BD4A, size: 0x8, addend: 0x0, symName: __ZNSt3__122__compressed_pair_elemINS_9allocatorINS_12basic_stringIcNS_11char_traitsIcEENS1_IcEEEEEELi1ELb1EEC2B7v160006ENS_18__default_init_tagE, symObjAddr: 0x2DB8, symBinAddr: 0x10002F658, symSize: 0x2C }
  - { offsetInCU: 0x11E3F, offset: 0x8BD7F, size: 0x8, addend: 0x0, symName: __ZNSt3__19allocatorINS_12basic_stringIcNS_11char_traitsIcEENS0_IcEEEEEC2B7v160006Ev, symObjAddr: 0x2DE4, symBinAddr: 0x10002F684, symSize: 0x2C }
  - { offsetInCU: 0x11E69, offset: 0x8BDA9, size: 0x8, addend: 0x0, symName: __ZNSt3__116__non_trivial_ifILb1ENS_9allocatorINS_12basic_stringIcNS_11char_traitsIcEENS1_IcEEEEEEEC2B7v160006Ev, symObjAddr: 0x2E10, symBinAddr: 0x10002F6B0, symSize: 0x14 }
  - { offsetInCU: 0x11E93, offset: 0x8BDD3, size: 0x8, addend: 0x0, symName: __ZNSt3__16vectorINS_12basic_stringIcNS_11char_traitsIcEENS_9allocatorIcEEEENS4_IS6_EEED2B7v160006Ev, symObjAddr: 0x2E24, symBinAddr: 0x10002F6C4, symSize: 0x1E0 }
  - { offsetInCU: 0x11EBE, offset: 0x8BDFE, size: 0x8, addend: 0x0, symName: __ZNSt3__16vectorINS_12basic_stringIcNS_11char_traitsIcEENS_9allocatorIcEEEENS4_IS6_EEE16__destroy_vectorC1ERS8_, symObjAddr: 0x3004, symBinAddr: 0x10002F8A4, symSize: 0x34 }
  - { offsetInCU: 0x11EF8, offset: 0x8BE38, size: 0x8, addend: 0x0, symName: __ZNSt3__16vectorINS_12basic_stringIcNS_11char_traitsIcEENS_9allocatorIcEEEENS4_IS6_EEE16__destroy_vectorclB7v160006Ev, symObjAddr: 0x3038, symBinAddr: 0x10002F8D8, symSize: 0x264 }
  - { offsetInCU: 0x11F1E, offset: 0x8BE5E, size: 0x8, addend: 0x0, symName: __ZNSt3__16vectorINS_12basic_stringIcNS_11char_traitsIcEENS_9allocatorIcEEEENS4_IS6_EEE16__destroy_vectorC2ERS8_, symObjAddr: 0x329C, symBinAddr: 0x10002FB3C, symSize: 0x70 }
  - { offsetInCU: 0x11F58, offset: 0x8BE98, size: 0x8, addend: 0x0, symName: __ZNKSt3__16vectorINS_12basic_stringIcNS_11char_traitsIcEENS_9allocatorIcEEEENS4_IS6_EEE17__annotate_deleteB7v160006Ev, symObjAddr: 0x330C, symBinAddr: 0x10002FBAC, symSize: 0xFC }
  - { offsetInCU: 0x11F7E, offset: 0x8BEBE, size: 0x8, addend: 0x0, symName: __ZNSt3__16vectorINS_12basic_stringIcNS_11char_traitsIcEENS_9allocatorIcEEEENS4_IS6_EEE7__clearB7v160006Ev, symObjAddr: 0x3418, symBinAddr: 0x10002FCB8, symSize: 0x64 }
  - { offsetInCU: 0x11FA4, offset: 0x8BEE4, size: 0x8, addend: 0x0, symName: __ZNSt3__116allocator_traitsINS_9allocatorINS_12basic_stringIcNS_11char_traitsIcEENS1_IcEEEEEEE10deallocateB7v160006ERS7_PS6_m, symObjAddr: 0x347C, symBinAddr: 0x10002FD1C, symSize: 0x34 }
  - { offsetInCU: 0x11FE9, offset: 0x8BF29, size: 0x8, addend: 0x0, symName: __ZNSt3__16vectorINS_12basic_stringIcNS_11char_traitsIcEENS_9allocatorIcEEEENS4_IS6_EEE7__allocB7v160006Ev, symObjAddr: 0x34B0, symBinAddr: 0x10002FD50, symSize: 0x28 }
  - { offsetInCU: 0x1200F, offset: 0x8BF4F, size: 0x8, addend: 0x0, symName: __ZNKSt3__16vectorINS_12basic_stringIcNS_11char_traitsIcEENS_9allocatorIcEEEENS4_IS6_EEE8capacityB7v160006Ev, symObjAddr: 0x34D8, symBinAddr: 0x10002FD78, symSize: 0xBC }
  - { offsetInCU: 0x12035, offset: 0x8BF75, size: 0x8, addend: 0x0, symName: __ZNKSt3__16vectorINS_12basic_stringIcNS_11char_traitsIcEENS_9allocatorIcEEEENS4_IS6_EEE31__annotate_contiguous_containerEPKvSA_SA_SA_, symObjAddr: 0x3594, symBinAddr: 0x10002FE34, symSize: 0x64 }
  - { offsetInCU: 0x1209B, offset: 0x8BFDB, size: 0x8, addend: 0x0, symName: __ZNKSt3__16vectorINS_12basic_stringIcNS_11char_traitsIcEENS_9allocatorIcEEEENS4_IS6_EEE4dataB7v160006Ev, symObjAddr: 0x35F8, symBinAddr: 0x10002FE98, symSize: 0x64 }
  - { offsetInCU: 0x120C1, offset: 0x8C001, size: 0x8, addend: 0x0, symName: __ZNSt3__16vectorINS_12basic_stringIcNS_11char_traitsIcEENS_9allocatorIcEEEENS4_IS6_EEE22__base_destruct_at_endB7v160006EPS6_, symObjAddr: 0x367C, symBinAddr: 0x10002FF10, symSize: 0x128 }
  - { offsetInCU: 0x12107, offset: 0x8C047, size: 0x8, addend: 0x0, symName: __ZNSt3__116allocator_traitsINS_9allocatorINS_12basic_stringIcNS_11char_traitsIcEENS1_IcEEEEEEE7destroyB7v160006IS6_vEEvRS7_PT_, symObjAddr: 0x37A4, symBinAddr: 0x100030038, symSize: 0x2C }
  - { offsetInCU: 0x12146, offset: 0x8C086, size: 0x8, addend: 0x0, symName: __ZNSt3__19allocatorINS_12basic_stringIcNS_11char_traitsIcEENS0_IcEEEEE7destroyB7v160006EPS5_, symObjAddr: 0x37D0, symBinAddr: 0x100030064, symSize: 0x28 }
  - { offsetInCU: 0x1217B, offset: 0x8C0BB, size: 0x8, addend: 0x0, symName: __ZNSt3__19allocatorINS_12basic_stringIcNS_11char_traitsIcEENS0_IcEEEEE10deallocateB7v160006EPS5_m, symObjAddr: 0x37F8, symBinAddr: 0x10003008C, symSize: 0x80 }
  - { offsetInCU: 0x121BF, offset: 0x8C0FF, size: 0x8, addend: 0x0, symName: __ZNSt3__117__compressed_pairIPNS_12basic_stringIcNS_11char_traitsIcEENS_9allocatorIcEEEENS4_IS6_EEE6secondB7v160006Ev, symObjAddr: 0x38F4, symBinAddr: 0x10003010C, symSize: 0x24 }
  - { offsetInCU: 0x121E5, offset: 0x8C125, size: 0x8, addend: 0x0, symName: __ZNSt3__122__compressed_pair_elemINS_9allocatorINS_12basic_stringIcNS_11char_traitsIcEENS1_IcEEEEEELi1ELb1EE5__getB7v160006Ev, symObjAddr: 0x3918, symBinAddr: 0x100030130, symSize: 0x14 }
  - { offsetInCU: 0x1220B, offset: 0x8C14B, size: 0x8, addend: 0x0, symName: __ZNKSt3__16vectorINS_12basic_stringIcNS_11char_traitsIcEENS_9allocatorIcEEEENS4_IS6_EEE9__end_capB7v160006Ev, symObjAddr: 0x392C, symBinAddr: 0x100030144, symSize: 0x28 }
  - { offsetInCU: 0x12231, offset: 0x8C171, size: 0x8, addend: 0x0, symName: __ZNKSt3__117__compressed_pairIPNS_12basic_stringIcNS_11char_traitsIcEENS_9allocatorIcEEEENS4_IS6_EEE5firstB7v160006Ev, symObjAddr: 0x3954, symBinAddr: 0x10003016C, symSize: 0x24 }
  - { offsetInCU: 0x12257, offset: 0x8C197, size: 0x8, addend: 0x0, symName: __ZNKSt3__122__compressed_pair_elemIPNS_12basic_stringIcNS_11char_traitsIcEENS_9allocatorIcEEEELi0ELb0EE5__getB7v160006Ev, symObjAddr: 0x3978, symBinAddr: 0x100030190, symSize: 0x14 }
  - { offsetInCU: 0x1227D, offset: 0x8C1BD, size: 0x8, addend: 0x0, symName: __ZNSt3__16vectorINS_12basic_stringIcNS_11char_traitsIcEENS_9allocatorIcEEEENS4_IS6_EEE9__end_capB7v160006Ev, symObjAddr: 0x5BEC, symBinAddr: 0x1000301A4, symSize: 0x28 }
  - { offsetInCU: 0x122A8, offset: 0x8C1E8, size: 0x8, addend: 0x0, symName: __ZNSt3__16vectorINS_12basic_stringIcNS_11char_traitsIcEENS_9allocatorIcEEEENS4_IS6_EEE22__construct_one_at_endB7v160006IJS6_EEEvDpOT_, symObjAddr: 0x5C14, symBinAddr: 0x1000301CC, symSize: 0x380 }
  - { offsetInCU: 0x122FF, offset: 0x8C23F, size: 0x8, addend: 0x0, symName: __ZNSt3__16vectorINS_12basic_stringIcNS_11char_traitsIcEENS_9allocatorIcEEEENS4_IS6_EEE21__push_back_slow_pathIS6_EEvOT_, symObjAddr: 0x5F94, symBinAddr: 0x10003054C, symSize: 0x3D4 }
  - { offsetInCU: 0x12367, offset: 0x8C2A7, size: 0x8, addend: 0x0, symName: __ZNSt3__117__compressed_pairIPNS_12basic_stringIcNS_11char_traitsIcEENS_9allocatorIcEEEENS4_IS6_EEE5firstB7v160006Ev, symObjAddr: 0x6368, symBinAddr: 0x100030920, symSize: 0x24 }
  - { offsetInCU: 0x1238D, offset: 0x8C2CD, size: 0x8, addend: 0x0, symName: __ZNSt3__122__compressed_pair_elemIPNS_12basic_stringIcNS_11char_traitsIcEENS_9allocatorIcEEEELi0ELb0EE5__getB7v160006Ev, symObjAddr: 0x638C, symBinAddr: 0x100030944, symSize: 0x14 }
  - { offsetInCU: 0x123CC, offset: 0x8C30C, size: 0x8, addend: 0x0, symName: __ZNSt3__16vectorINS_12basic_stringIcNS_11char_traitsIcEENS_9allocatorIcEEEENS4_IS6_EEE21_ConstructTransactionC1B7v160006ERS8_m, symObjAddr: 0x63A0, symBinAddr: 0x100030958, symSize: 0x3C }
  - { offsetInCU: 0x12416, offset: 0x8C356, size: 0x8, addend: 0x0, symName: __ZNSt3__116allocator_traitsINS_9allocatorINS_12basic_stringIcNS_11char_traitsIcEENS1_IcEEEEEEE9constructB7v160006IS6_JS6_EvEEvRS7_PT_DpOT0_, symObjAddr: 0x63DC, symBinAddr: 0x100030994, symSize: 0x34 }
  - { offsetInCU: 0x12470, offset: 0x8C3B0, size: 0x8, addend: 0x0, symName: __ZNSt3__16vectorINS_12basic_stringIcNS_11char_traitsIcEENS_9allocatorIcEEEENS4_IS6_EEE21_ConstructTransactionD1B7v160006Ev, symObjAddr: 0x6410, symBinAddr: 0x1000309C8, symSize: 0x2C }
  - { offsetInCU: 0x1249A, offset: 0x8C3DA, size: 0x8, addend: 0x0, symName: __ZNSt3__16vectorINS_12basic_stringIcNS_11char_traitsIcEENS_9allocatorIcEEEENS4_IS6_EEE21_ConstructTransactionC2B7v160006ERS8_m, symObjAddr: 0x643C, symBinAddr: 0x1000309F4, symSize: 0x1D8 }
  - { offsetInCU: 0x124E4, offset: 0x8C424, size: 0x8, addend: 0x0, symName: __ZNKSt3__16vectorINS_12basic_stringIcNS_11char_traitsIcEENS_9allocatorIcEEEENS4_IS6_EEE19__annotate_increaseB7v160006Em, symObjAddr: 0x6614, symBinAddr: 0x100030BCC, symSize: 0x10C }
  - { offsetInCU: 0x1251A, offset: 0x8C45A, size: 0x8, addend: 0x0, symName: __ZNSt3__19allocatorINS_12basic_stringIcNS_11char_traitsIcEENS0_IcEEEEE9constructB7v160006IS5_JS5_EEEvPT_DpOT0_, symObjAddr: 0x6720, symBinAddr: 0x100030CD8, symSize: 0x30 }
  - { offsetInCU: 0x12572, offset: 0x8C4B2, size: 0x8, addend: 0x0, symName: __ZNSt3__16vectorINS_12basic_stringIcNS_11char_traitsIcEENS_9allocatorIcEEEENS4_IS6_EEE21_ConstructTransactionD2B7v160006Ev, symObjAddr: 0x6750, symBinAddr: 0x100030D08, symSize: 0x278 }
  - { offsetInCU: 0x1259C, offset: 0x8C4DC, size: 0x8, addend: 0x0, symName: __ZNKSt3__16vectorINS_12basic_stringIcNS_11char_traitsIcEENS_9allocatorIcEEEENS4_IS6_EEE17__annotate_shrinkB7v160006Em, symObjAddr: 0x69C8, symBinAddr: 0x100030F80, symSize: 0xF8 }
  - { offsetInCU: 0x125D2, offset: 0x8C512, size: 0x8, addend: 0x0, symName: __ZNKSt3__16vectorINS_12basic_stringIcNS_11char_traitsIcEENS_9allocatorIcEEEENS4_IS6_EEE11__recommendB7v160006Em, symObjAddr: 0x6AC0, symBinAddr: 0x100031078, symSize: 0x384 }
  - { offsetInCU: 0x12631, offset: 0x8C571, size: 0x8, addend: 0x0, symName: __ZNSt3__114__split_bufferINS_12basic_stringIcNS_11char_traitsIcEENS_9allocatorIcEEEERNS4_IS6_EEEC1EmmS8_, symObjAddr: 0x6E44, symBinAddr: 0x1000313FC, symSize: 0x44 }
  - { offsetInCU: 0x1268A, offset: 0x8C5CA, size: 0x8, addend: 0x0, symName: __ZNSt3__114__split_bufferINS_12basic_stringIcNS_11char_traitsIcEENS_9allocatorIcEEEERNS4_IS6_EEED1Ev, symObjAddr: 0x73FC, symBinAddr: 0x1000319B4, symSize: 0x2C }
  - { offsetInCU: 0x126B6, offset: 0x8C5F6, size: 0x8, addend: 0x0, symName: __ZNKSt3__16vectorINS_12basic_stringIcNS_11char_traitsIcEENS_9allocatorIcEEEENS4_IS6_EEE8max_sizeEv, symObjAddr: 0x7428, symBinAddr: 0x1000319E0, symSize: 0x328 }
  - { offsetInCU: 0x126DF, offset: 0x8C61F, size: 0x8, addend: 0x0, symName: __ZNKSt3__16vectorINS_12basic_stringIcNS_11char_traitsIcEENS_9allocatorIcEEEENS4_IS6_EEE20__throw_length_errorB7v160006Ev, symObjAddr: 0x7750, symBinAddr: 0x100031D08, symSize: 0x20 }
  - { offsetInCU: 0x1270F, offset: 0x8C64F, size: 0x8, addend: 0x0, symName: __ZNSt3__116allocator_traitsINS_9allocatorINS_12basic_stringIcNS_11char_traitsIcEENS1_IcEEEEEEE8max_sizeB7v160006IS7_vEEmRKS7_, symObjAddr: 0x77C8, symBinAddr: 0x100031D28, symSize: 0x24 }
  - { offsetInCU: 0x1273E, offset: 0x8C67E, size: 0x8, addend: 0x0, symName: __ZNKSt3__16vectorINS_12basic_stringIcNS_11char_traitsIcEENS_9allocatorIcEEEENS4_IS6_EEE7__allocB7v160006Ev, symObjAddr: 0x77EC, symBinAddr: 0x100031D4C, symSize: 0x28 }
  - { offsetInCU: 0x12764, offset: 0x8C6A4, size: 0x8, addend: 0x0, symName: __ZNKSt3__19allocatorINS_12basic_stringIcNS_11char_traitsIcEENS0_IcEEEEE8max_sizeB7v160006Ev, symObjAddr: 0x7ACC, symBinAddr: 0x100031D74, symSize: 0x18 }
  - { offsetInCU: 0x1278A, offset: 0x8C6CA, size: 0x8, addend: 0x0, symName: __ZNKSt3__117__compressed_pairIPNS_12basic_stringIcNS_11char_traitsIcEENS_9allocatorIcEEEENS4_IS6_EEE6secondB7v160006Ev, symObjAddr: 0x7AE4, symBinAddr: 0x100031D8C, symSize: 0x24 }
  - { offsetInCU: 0x127B0, offset: 0x8C6F0, size: 0x8, addend: 0x0, symName: __ZNKSt3__122__compressed_pair_elemINS_9allocatorINS_12basic_stringIcNS_11char_traitsIcEENS1_IcEEEEEELi1ELb1EE5__getB7v160006Ev, symObjAddr: 0x7B08, symBinAddr: 0x100031DB0, symSize: 0x14 }
  - { offsetInCU: 0x127D6, offset: 0x8C716, size: 0x8, addend: 0x0, symName: __ZNSt3__114__split_bufferINS_12basic_stringIcNS_11char_traitsIcEENS_9allocatorIcEEEERNS4_IS6_EEEC2EmmS8_, symObjAddr: 0x7E34, symBinAddr: 0x100031DC4, symSize: 0x530 }
  - { offsetInCU: 0x12856, offset: 0x8C796, size: 0x8, addend: 0x0, symName: __ZNSt3__117__compressed_pairIPNS_12basic_stringIcNS_11char_traitsIcEENS_9allocatorIcEEEERNS4_IS6_EEEC1B7v160006IDnS9_EEOT_OT0_, symObjAddr: 0x8364, symBinAddr: 0x1000322F4, symSize: 0x3C }
  - { offsetInCU: 0x128B0, offset: 0x8C7F0, size: 0x8, addend: 0x0, symName: __ZNSt3__114__split_bufferINS_12basic_stringIcNS_11char_traitsIcEENS_9allocatorIcEEEERNS4_IS6_EEE7__allocB7v160006Ev, symObjAddr: 0x862C, symBinAddr: 0x1000325BC, symSize: 0x28 }
  - { offsetInCU: 0x128D6, offset: 0x8C816, size: 0x8, addend: 0x0, symName: __ZNSt3__114__split_bufferINS_12basic_stringIcNS_11char_traitsIcEENS_9allocatorIcEEEERNS4_IS6_EEE9__end_capB7v160006Ev, symObjAddr: 0x8654, symBinAddr: 0x1000325E4, symSize: 0x28 }
  - { offsetInCU: 0x128FC, offset: 0x8C83C, size: 0x8, addend: 0x0, symName: __ZNSt3__117__compressed_pairIPNS_12basic_stringIcNS_11char_traitsIcEENS_9allocatorIcEEEERNS4_IS6_EEEC2B7v160006IDnS9_EEOT_OT0_, symObjAddr: 0x867C, symBinAddr: 0x10003260C, symSize: 0x48 }
  - { offsetInCU: 0x12956, offset: 0x8C896, size: 0x8, addend: 0x0, symName: __ZNSt3__122__compressed_pair_elemIRNS_9allocatorINS_12basic_stringIcNS_11char_traitsIcEENS1_IcEEEEEELi1ELb0EEC2B7v160006IS8_vEEOT_, symObjAddr: 0x86C4, symBinAddr: 0x100032654, symSize: 0x70 }
  - { offsetInCU: 0x12999, offset: 0x8C8D9, size: 0x8, addend: 0x0, symName: __ZNSt3__19allocatorINS_12basic_stringIcNS_11char_traitsIcEENS0_IcEEEEE8allocateB7v160006Em, symObjAddr: 0x8734, symBinAddr: 0x1000326C4, symSize: 0x90 }
  - { offsetInCU: 0x129CE, offset: 0x8C90E, size: 0x8, addend: 0x0, symName: __ZNSt3__117__compressed_pairIPNS_12basic_stringIcNS_11char_traitsIcEENS_9allocatorIcEEEERNS4_IS6_EEE6secondB7v160006Ev, symObjAddr: 0x8848, symBinAddr: 0x100032754, symSize: 0x28 }
  - { offsetInCU: 0x129F4, offset: 0x8C934, size: 0x8, addend: 0x0, symName: __ZNSt3__122__compressed_pair_elemIRNS_9allocatorINS_12basic_stringIcNS_11char_traitsIcEENS1_IcEEEEEELi1ELb0EE5__getB7v160006Ev, symObjAddr: 0x8870, symBinAddr: 0x10003277C, symSize: 0x60 }
  - { offsetInCU: 0x12A1A, offset: 0x8C95A, size: 0x8, addend: 0x0, symName: __ZNSt3__117__compressed_pairIPNS_12basic_stringIcNS_11char_traitsIcEENS_9allocatorIcEEEERNS4_IS6_EEE5firstB7v160006Ev, symObjAddr: 0x88D0, symBinAddr: 0x1000327DC, symSize: 0x24 }
  - { offsetInCU: 0x12A40, offset: 0x8C980, size: 0x8, addend: 0x0, symName: __ZNSt3__116reverse_iteratorIPNS_12basic_stringIcNS_11char_traitsIcEENS_9allocatorIcEEEEEC1B7v160006ES7_, symObjAddr: 0x8E4C, symBinAddr: 0x100032D58, symSize: 0x34 }
  - { offsetInCU: 0x12A79, offset: 0x8C9B9, size: 0x8, addend: 0x0, symName: __ZNKSt3__116reverse_iteratorIPNS_12basic_stringIcNS_11char_traitsIcEENS_9allocatorIcEEEEE4baseB7v160006Ev, symObjAddr: 0x8E80, symBinAddr: 0x100032D8C, symSize: 0x64 }
  - { offsetInCU: 0x12A9F, offset: 0x8C9DF, size: 0x8, addend: 0x0, symName: __ZNKSt3__16vectorINS_12basic_stringIcNS_11char_traitsIcEENS_9allocatorIcEEEENS4_IS6_EEE14__annotate_newB7v160006Em, symObjAddr: 0x9018, symBinAddr: 0x100032F24, symSize: 0xF0 }
  - { offsetInCU: 0x12AD5, offset: 0x8CA15, size: 0x8, addend: 0x0, symName: __ZNSt3__129_AllocatorDestroyRangeReverseINS_9allocatorINS_12basic_stringIcNS_11char_traitsIcEENS1_IcEEEEEENS_16reverse_iteratorIPS6_EEEC1B7v160006ERS7_RSA_SD_, symObjAddr: 0x9310, symBinAddr: 0x10003321C, symSize: 0x44 }
  - { offsetInCU: 0x12B2F, offset: 0x8CA6F, size: 0x8, addend: 0x0, symName: __ZNSt3__116allocator_traitsINS_9allocatorINS_12basic_stringIcNS_11char_traitsIcEENS1_IcEEEEEEE9constructB7v160006IS6_JRKS6_EvEEvRS7_PT_DpOT0_, symObjAddr: 0x939C, symBinAddr: 0x1000332A8, symSize: 0x34 }
  - { offsetInCU: 0x12B89, offset: 0x8CAC9, size: 0x8, addend: 0x0, symName: __ZNKSt3__116reverse_iteratorIPNS_12basic_stringIcNS_11char_traitsIcEENS_9allocatorIcEEEEEdeB7v160006Ev, symObjAddr: 0x93F4, symBinAddr: 0x100033300, symSize: 0x74 }
  - { offsetInCU: 0x12BBD, offset: 0x8CAFD, size: 0x8, addend: 0x0, symName: __ZNSt3__116reverse_iteratorIPNS_12basic_stringIcNS_11char_traitsIcEENS_9allocatorIcEEEEEppB7v160006Ev, symObjAddr: 0x9468, symBinAddr: 0x100033374, symSize: 0x6C }
  - { offsetInCU: 0x12BE3, offset: 0x8CB23, size: 0x8, addend: 0x0, symName: __ZNSt3__128__exception_guard_exceptionsINS_29_AllocatorDestroyRangeReverseINS_9allocatorINS_12basic_stringIcNS_11char_traitsIcEENS2_IcEEEEEENS_16reverse_iteratorIPS7_EEEEE10__completeB7v160006Ev, symObjAddr: 0x94D4, symBinAddr: 0x1000333E0, symSize: 0x8C }
  - { offsetInCU: 0x12C09, offset: 0x8CB49, size: 0x8, addend: 0x0, symName: __ZNSt3__128__exception_guard_exceptionsINS_29_AllocatorDestroyRangeReverseINS_9allocatorINS_12basic_stringIcNS_11char_traitsIcEENS2_IcEEEEEENS_16reverse_iteratorIPS7_EEEEED1B7v160006Ev, symObjAddr: 0x9560, symBinAddr: 0x10003346C, symSize: 0x2C }
  - { offsetInCU: 0x12C33, offset: 0x8CB73, size: 0x8, addend: 0x0, symName: __ZNSt3__128__exception_guard_exceptionsINS_29_AllocatorDestroyRangeReverseINS_9allocatorINS_12basic_stringIcNS_11char_traitsIcEENS2_IcEEEEEENS_16reverse_iteratorIPS7_EEEEEC1B7v160006ESC_, symObjAddr: 0x958C, symBinAddr: 0x100033498, symSize: 0x34 }
  - { offsetInCU: 0x12C6D, offset: 0x8CBAD, size: 0x8, addend: 0x0, symName: __ZNSt3__128__exception_guard_exceptionsINS_29_AllocatorDestroyRangeReverseINS_9allocatorINS_12basic_stringIcNS_11char_traitsIcEENS2_IcEEEEEENS_16reverse_iteratorIPS7_EEEEEC2B7v160006ESC_, symObjAddr: 0x95C0, symBinAddr: 0x1000334CC, symSize: 0xA4 }
  - { offsetInCU: 0x12CA7, offset: 0x8CBE7, size: 0x8, addend: 0x0, symName: __ZNSt3__129_AllocatorDestroyRangeReverseINS_9allocatorINS_12basic_stringIcNS_11char_traitsIcEENS1_IcEEEEEENS_16reverse_iteratorIPS6_EEEC2B7v160006ERS7_RSA_SD_, symObjAddr: 0x9664, symBinAddr: 0x100033570, symSize: 0x104 }
  - { offsetInCU: 0x12D01, offset: 0x8CC41, size: 0x8, addend: 0x0, symName: __ZNSt3__19allocatorINS_12basic_stringIcNS_11char_traitsIcEENS0_IcEEEEE9constructB7v160006IS5_JRKS5_EEEvPT_DpOT0_, symObjAddr: 0x9768, symBinAddr: 0x100033674, symSize: 0x30 }
  - { offsetInCU: 0x12D5E, offset: 0x8CC9E, size: 0x8, addend: 0x0, symName: __ZNSt3__119__to_address_helperINS_16reverse_iteratorIPNS_12basic_stringIcNS_11char_traitsIcEENS_9allocatorIcEEEEEEvE6__callB7v160006ERKS9_, symObjAddr: 0x9798, symBinAddr: 0x1000336A4, symSize: 0x58 }
  - { offsetInCU: 0x12D82, offset: 0x8CCC2, size: 0x8, addend: 0x0, symName: __ZNKSt3__116reverse_iteratorIPNS_12basic_stringIcNS_11char_traitsIcEENS_9allocatorIcEEEEEptB7v160006Ev, symObjAddr: 0x97F0, symBinAddr: 0x1000336FC, symSize: 0x24 }
  - { offsetInCU: 0x12DA8, offset: 0x8CCE8, size: 0x8, addend: 0x0, symName: __ZNSt3__128__exception_guard_exceptionsINS_29_AllocatorDestroyRangeReverseINS_9allocatorINS_12basic_stringIcNS_11char_traitsIcEENS2_IcEEEEEENS_16reverse_iteratorIPS7_EEEEED2B7v160006Ev, symObjAddr: 0x9814, symBinAddr: 0x100033720, symSize: 0xA8 }
  - { offsetInCU: 0x12DD2, offset: 0x8CD12, size: 0x8, addend: 0x0, symName: __ZNKSt3__129_AllocatorDestroyRangeReverseINS_9allocatorINS_12basic_stringIcNS_11char_traitsIcEENS1_IcEEEEEENS_16reverse_iteratorIPS6_EEEclB7v160006Ev, symObjAddr: 0x98BC, symBinAddr: 0x1000337C8, symSize: 0x3A8 }
  - { offsetInCU: 0x12DF9, offset: 0x8CD39, size: 0x8, addend: 0x0, symName: __ZNSt3__116reverse_iteratorINS0_IPNS_12basic_stringIcNS_11char_traitsIcEENS_9allocatorIcEEEEEEEC1B7v160006ES8_, symObjAddr: 0x9CD4, symBinAddr: 0x100033BE0, symSize: 0x248 }
  - { offsetInCU: 0x12E37, offset: 0x8CD77, size: 0x8, addend: 0x0, symName: __ZNSt3__116reverse_iteratorINS0_IPNS_12basic_stringIcNS_11char_traitsIcEENS_9allocatorIcEEEEEEEppB7v160006Ev, symObjAddr: 0xA20C, symBinAddr: 0x100034118, symSize: 0x30 }
  - { offsetInCU: 0x12E5D, offset: 0x8CD9D, size: 0x8, addend: 0x0, symName: __ZNKSt3__116reverse_iteratorINS0_IPNS_12basic_stringIcNS_11char_traitsIcEENS_9allocatorIcEEEEEEE4baseB7v160006Ev, symObjAddr: 0xA23C, symBinAddr: 0x100034148, symSize: 0x20C }
  - { offsetInCU: 0x12E89, offset: 0x8CDC9, size: 0x8, addend: 0x0, symName: __ZNSt3__119__to_address_helperINS_16reverse_iteratorINS1_IPNS_12basic_stringIcNS_11char_traitsIcEENS_9allocatorIcEEEEEEEEvE6__callB7v160006ERKSA_, symObjAddr: 0xA448, symBinAddr: 0x100034354, symSize: 0x58 }
  - { offsetInCU: 0x12EAD, offset: 0x8CDED, size: 0x8, addend: 0x0, symName: __ZNKSt3__116reverse_iteratorINS0_IPNS_12basic_stringIcNS_11char_traitsIcEENS_9allocatorIcEEEEEEEptB7v160006Ev, symObjAddr: 0xA4A0, symBinAddr: 0x1000343AC, symSize: 0x24 }
  - { offsetInCU: 0x12ED3, offset: 0x8CE13, size: 0x8, addend: 0x0, symName: __ZNKSt3__116reverse_iteratorINS0_IPNS_12basic_stringIcNS_11char_traitsIcEENS_9allocatorIcEEEEEEEdeB7v160006Ev, symObjAddr: 0xA4C4, symBinAddr: 0x1000343D0, symSize: 0x1EC }
  - { offsetInCU: 0x12F0C, offset: 0x8CE4C, size: 0x8, addend: 0x0, symName: __ZNSt3__116reverse_iteratorIPNS_12basic_stringIcNS_11char_traitsIcEENS_9allocatorIcEEEEEmmB7v160006Ev, symObjAddr: 0xA6B0, symBinAddr: 0x1000345BC, symSize: 0x6C }
  - { offsetInCU: 0x12F32, offset: 0x8CE72, size: 0x8, addend: 0x0, symName: __ZNSt3__116reverse_iteratorINS0_IPNS_12basic_stringIcNS_11char_traitsIcEENS_9allocatorIcEEEEEEEC2B7v160006ES8_, symObjAddr: 0xA71C, symBinAddr: 0x100034628, symSize: 0x22C }
  - { offsetInCU: 0x12F70, offset: 0x8CEB0, size: 0x8, addend: 0x0, symName: __ZNSt3__116reverse_iteratorIPNS_12basic_stringIcNS_11char_traitsIcEENS_9allocatorIcEEEEEC2B7v160006ES7_, symObjAddr: 0xA948, symBinAddr: 0x100034854, symSize: 0xB8 }
  - { offsetInCU: 0x12FA9, offset: 0x8CEE9, size: 0x8, addend: 0x0, symName: __ZNSt3__114__split_bufferINS_12basic_stringIcNS_11char_traitsIcEENS_9allocatorIcEEEERNS4_IS6_EEED2Ev, symObjAddr: 0xAA00, symBinAddr: 0x10003490C, symSize: 0xEC }
  - { offsetInCU: 0x12FD5, offset: 0x8CF15, size: 0x8, addend: 0x0, symName: __ZNSt3__114__split_bufferINS_12basic_stringIcNS_11char_traitsIcEENS_9allocatorIcEEEERNS4_IS6_EEE5clearB7v160006Ev, symObjAddr: 0xAAEC, symBinAddr: 0x1000349F8, symSize: 0x68 }
  - { offsetInCU: 0x12FFB, offset: 0x8CF3B, size: 0x8, addend: 0x0, symName: __ZNKSt3__114__split_bufferINS_12basic_stringIcNS_11char_traitsIcEENS_9allocatorIcEEEERNS4_IS6_EEE8capacityB7v160006Ev, symObjAddr: 0xAB54, symBinAddr: 0x100034A60, symSize: 0xBC }
  - { offsetInCU: 0x13021, offset: 0x8CF61, size: 0x8, addend: 0x0, symName: __ZNSt3__114__split_bufferINS_12basic_stringIcNS_11char_traitsIcEENS_9allocatorIcEEEERNS4_IS6_EEE17__destruct_at_endB7v160006EPS6_, symObjAddr: 0xAC10, symBinAddr: 0x100034B1C, symSize: 0x2C }
  - { offsetInCU: 0x13056, offset: 0x8CF96, size: 0x8, addend: 0x0, symName: __ZNSt3__114__split_bufferINS_12basic_stringIcNS_11char_traitsIcEENS_9allocatorIcEEEERNS4_IS6_EEE17__destruct_at_endB7v160006EPS6_NS_17integral_constantIbLb0EEE, symObjAddr: 0xAC3C, symBinAddr: 0x100034B48, symSize: 0x120 }
  - { offsetInCU: 0x13098, offset: 0x8CFD8, size: 0x8, addend: 0x0, symName: __ZNKSt3__114__split_bufferINS_12basic_stringIcNS_11char_traitsIcEENS_9allocatorIcEEEERNS4_IS6_EEE9__end_capB7v160006Ev, symObjAddr: 0xAD5C, symBinAddr: 0x100034C68, symSize: 0x28 }
  - { offsetInCU: 0x130BE, offset: 0x8CFFE, size: 0x8, addend: 0x0, symName: __ZNKSt3__117__compressed_pairIPNS_12basic_stringIcNS_11char_traitsIcEENS_9allocatorIcEEEERNS4_IS6_EEE5firstB7v160006Ev, symObjAddr: 0xAD84, symBinAddr: 0x100034C90, symSize: 0x24 }
  - { offsetInCU: 0x130E4, offset: 0x8D024, size: 0x8, addend: 0x0, symName: __ZNSt3__16vectorINS_12basic_stringIcNS_11char_traitsIcEENS_9allocatorIcEEEENS4_IS6_EEEC2ERKS8_, symObjAddr: 0xADA8, symBinAddr: 0x100034CB4, symSize: 0x54C }
  - { offsetInCU: 0x1314E, offset: 0x8D08E, size: 0x8, addend: 0x0, symName: __ZNSt3__116allocator_traitsINS_9allocatorINS_12basic_stringIcNS_11char_traitsIcEENS1_IcEEEEEEE37select_on_container_copy_constructionB7v160006IS7_vvEES7_RKS7_, symObjAddr: 0xB2F4, symBinAddr: 0x100035200, symSize: 0x10 }
  - { offsetInCU: 0x13183, offset: 0x8D0C3, size: 0x8, addend: 0x0, symName: __ZNSt3__117__compressed_pairIPNS_12basic_stringIcNS_11char_traitsIcEENS_9allocatorIcEEEENS4_IS6_EEEC1B7v160006IDnS8_EEOT_OT0_, symObjAddr: 0xB304, symBinAddr: 0x100035210, symSize: 0x3C }
  - { offsetInCU: 0x131DD, offset: 0x8D11D, size: 0x8, addend: 0x0, symName: __ZNSt3__16vectorINS_12basic_stringIcNS_11char_traitsIcEENS_9allocatorIcEEEENS4_IS6_EEE11__vallocateB7v160006Em, symObjAddr: 0xB5B8, symBinAddr: 0x1000354C4, symSize: 0x428 }
  - { offsetInCU: 0x13229, offset: 0x8D169, size: 0x8, addend: 0x0, symName: __ZNSt3__16vectorINS_12basic_stringIcNS_11char_traitsIcEENS_9allocatorIcEEEENS4_IS6_EEE18__construct_at_endIPS6_Li0EEEvT_SB_m, symObjAddr: 0xB9E0, symBinAddr: 0x1000358EC, symSize: 0x394 }
  - { offsetInCU: 0x132A9, offset: 0x8D1E9, size: 0x8, addend: 0x0, symName: __ZNSt3__128__exception_guard_exceptionsINS_6vectorINS_12basic_stringIcNS_11char_traitsIcEENS_9allocatorIcEEEENS5_IS7_EEE16__destroy_vectorEE10__completeB7v160006Ev, symObjAddr: 0xBD74, symBinAddr: 0x100035C80, symSize: 0x8C }
  - { offsetInCU: 0x132CF, offset: 0x8D20F, size: 0x8, addend: 0x0, symName: __ZNSt3__128__exception_guard_exceptionsINS_6vectorINS_12basic_stringIcNS_11char_traitsIcEENS_9allocatorIcEEEENS5_IS7_EEE16__destroy_vectorEED1B7v160006Ev, symObjAddr: 0xBE00, symBinAddr: 0x100035D0C, symSize: 0x2C }
  - { offsetInCU: 0x132F9, offset: 0x8D239, size: 0x8, addend: 0x0, symName: __ZNSt3__117__compressed_pairIPNS_12basic_stringIcNS_11char_traitsIcEENS_9allocatorIcEEEENS4_IS6_EEEC2B7v160006IDnS8_EEOT_OT0_, symObjAddr: 0xBE2C, symBinAddr: 0x100035D38, symSize: 0x44 }
  - { offsetInCU: 0x13353, offset: 0x8D293, size: 0x8, addend: 0x0, symName: __ZNSt3__122__compressed_pair_elemINS_9allocatorINS_12basic_stringIcNS_11char_traitsIcEENS1_IcEEEEEELi1ELb1EEC2B7v160006IS7_vEEOT_, symObjAddr: 0xBE70, symBinAddr: 0x100035D7C, symSize: 0x18 }
  - { offsetInCU: 0x13396, offset: 0x8D2D6, size: 0x8, addend: 0x0, symName: __ZNSt3__128__exception_guard_exceptionsINS_6vectorINS_12basic_stringIcNS_11char_traitsIcEENS_9allocatorIcEEEENS5_IS7_EEE16__destroy_vectorEEC1B7v160006ESA_, symObjAddr: 0xBE88, symBinAddr: 0x100035D94, symSize: 0x238 }
  - { offsetInCU: 0x133D4, offset: 0x8D314, size: 0x8, addend: 0x0, symName: __ZNSt3__128__exception_guard_exceptionsINS_6vectorINS_12basic_stringIcNS_11char_traitsIcEENS_9allocatorIcEEEENS5_IS7_EEE16__destroy_vectorEEC2B7v160006ESA_, symObjAddr: 0xC0C0, symBinAddr: 0x100035FCC, symSize: 0x264 }
  - { offsetInCU: 0x13412, offset: 0x8D352, size: 0x8, addend: 0x0, symName: __ZNSt3__129_AllocatorDestroyRangeReverseINS_9allocatorINS_12basic_stringIcNS_11char_traitsIcEENS1_IcEEEEEEPS6_EC1B7v160006ERS7_RS8_SB_, symObjAddr: 0xCA50, symBinAddr: 0x10003695C, symSize: 0x44 }
  - { offsetInCU: 0x1346C, offset: 0x8D3AC, size: 0x8, addend: 0x0, symName: __ZNSt3__116allocator_traitsINS_9allocatorINS_12basic_stringIcNS_11char_traitsIcEENS1_IcEEEEEEE9constructB7v160006IS6_JRS6_EvEEvRS7_PT_DpOT0_, symObjAddr: 0xCA94, symBinAddr: 0x1000369A0, symSize: 0x34 }
  - { offsetInCU: 0x134C6, offset: 0x8D406, size: 0x8, addend: 0x0, symName: __ZNSt3__128__exception_guard_exceptionsINS_29_AllocatorDestroyRangeReverseINS_9allocatorINS_12basic_stringIcNS_11char_traitsIcEENS2_IcEEEEEEPS7_EEE10__completeB7v160006Ev, symObjAddr: 0xCAC8, symBinAddr: 0x1000369D4, symSize: 0x8C }
  - { offsetInCU: 0x134EC, offset: 0x8D42C, size: 0x8, addend: 0x0, symName: __ZNSt3__128__exception_guard_exceptionsINS_29_AllocatorDestroyRangeReverseINS_9allocatorINS_12basic_stringIcNS_11char_traitsIcEENS2_IcEEEEEEPS7_EEED1B7v160006Ev, symObjAddr: 0xCB54, symBinAddr: 0x100036A60, symSize: 0x2C }
  - { offsetInCU: 0x13516, offset: 0x8D456, size: 0x8, addend: 0x0, symName: __ZNSt3__128__exception_guard_exceptionsINS_29_AllocatorDestroyRangeReverseINS_9allocatorINS_12basic_stringIcNS_11char_traitsIcEENS2_IcEEEEEEPS7_EEEC1B7v160006ESA_, symObjAddr: 0xCB80, symBinAddr: 0x100036A8C, symSize: 0x34 }
  - { offsetInCU: 0x13550, offset: 0x8D490, size: 0x8, addend: 0x0, symName: __ZNSt3__128__exception_guard_exceptionsINS_29_AllocatorDestroyRangeReverseINS_9allocatorINS_12basic_stringIcNS_11char_traitsIcEENS2_IcEEEEEEPS7_EEEC2B7v160006ESA_, symObjAddr: 0xCBB4, symBinAddr: 0x100036AC0, symSize: 0xA4 }
  - { offsetInCU: 0x1358A, offset: 0x8D4CA, size: 0x8, addend: 0x0, symName: __ZNSt3__129_AllocatorDestroyRangeReverseINS_9allocatorINS_12basic_stringIcNS_11char_traitsIcEENS1_IcEEEEEEPS6_EC2B7v160006ERS7_RS8_SB_, symObjAddr: 0xCC58, symBinAddr: 0x100036B64, symSize: 0x104 }
  - { offsetInCU: 0x135E4, offset: 0x8D524, size: 0x8, addend: 0x0, symName: __ZNSt3__19allocatorINS_12basic_stringIcNS_11char_traitsIcEENS0_IcEEEEE9constructB7v160006IS5_JRS5_EEEvPT_DpOT0_, symObjAddr: 0xCD5C, symBinAddr: 0x100036C68, symSize: 0x30 }
  - { offsetInCU: 0x1363C, offset: 0x8D57C, size: 0x8, addend: 0x0, symName: __ZNSt3__128__exception_guard_exceptionsINS_29_AllocatorDestroyRangeReverseINS_9allocatorINS_12basic_stringIcNS_11char_traitsIcEENS2_IcEEEEEEPS7_EEED2B7v160006Ev, symObjAddr: 0xCD8C, symBinAddr: 0x100036C98, symSize: 0xA8 }
  - { offsetInCU: 0x13666, offset: 0x8D5A6, size: 0x8, addend: 0x0, symName: __ZNKSt3__129_AllocatorDestroyRangeReverseINS_9allocatorINS_12basic_stringIcNS_11char_traitsIcEENS1_IcEEEEEEPS6_EclB7v160006Ev, symObjAddr: 0xCE34, symBinAddr: 0x100036D40, symSize: 0x39C }
  - { offsetInCU: 0x1368D, offset: 0x8D5CD, size: 0x8, addend: 0x0, symName: __ZNSt3__128__exception_guard_exceptionsINS_6vectorINS_12basic_stringIcNS_11char_traitsIcEENS_9allocatorIcEEEENS5_IS7_EEE16__destroy_vectorEED2B7v160006Ev, symObjAddr: 0xD488, symBinAddr: 0x100037394, symSize: 0xA8 }
  - { offsetInCU: 0x3B, offset: 0x8D6B3, size: 0x8, addend: 0x0, symName: _.str, symObjAddr: 0x4BE0, symBinAddr: 0x100049C40, symSize: 0x0 }
  - { offsetInCU: 0x6B, offset: 0x8D6E3, size: 0x8, addend: 0x0, symName: _.str.1, symObjAddr: 0x4C40, symBinAddr: 0x100049CA0, symSize: 0x0 }
  - { offsetInCU: 0x88, offset: 0x8D700, size: 0x8, addend: 0x0, symName: _.str.2, symObjAddr: 0x4C80, symBinAddr: 0x100049CE0, symSize: 0x0 }
  - { offsetInCU: 0x4588, offset: 0x91C00, size: 0x8, addend: 0x0, symName: __ZN13ClickableIconC2EiiffNSt3__112basic_stringIcNS0_11char_traitsIcEENS0_9allocatorIcEEEE, symObjAddr: 0x0, symBinAddr: 0x1000374D4, symSize: 0x590 }
  - { offsetInCU: 0x4606, offset: 0x91C7E, size: 0x8, addend: 0x0, symName: __ZN13ClickableIconC1EiiffNSt3__112basic_stringIcNS0_11char_traitsIcEENS0_9allocatorIcEEEE, symObjAddr: 0x710, symBinAddr: 0x100037A64, symSize: 0x54 }
  - { offsetInCU: 0x467E, offset: 0x91CF6, size: 0x8, addend: 0x0, symName: __ZN13ClickableIconD2Ev, symObjAddr: 0x764, symBinAddr: 0x100037AB8, symSize: 0x198 }
  - { offsetInCU: 0x46AA, offset: 0x91D22, size: 0x8, addend: 0x0, symName: __ZN13ClickableIconD1Ev, symObjAddr: 0x8FC, symBinAddr: 0x100037C50, symSize: 0x2C }
  - { offsetInCU: 0x46D6, offset: 0x91D4E, size: 0x8, addend: 0x0, symName: __ZN13ClickableIconD0Ev, symObjAddr: 0x928, symBinAddr: 0x100037C7C, symSize: 0x58 }
  - { offsetInCU: 0x4702, offset: 0x91D7A, size: 0x8, addend: 0x0, symName: __ZNK13ClickableIcon10getClickedEv, symObjAddr: 0x980, symBinAddr: 0x100037CD4, symSize: 0x8C }
  - { offsetInCU: 0x472A, offset: 0x91DA2, size: 0x8, addend: 0x0, symName: __ZN13ClickableIcon9isClickedEN2sf7Vector2IfEE, symObjAddr: 0xA0C, symBinAddr: 0x100037D60, symSize: 0x5D8 }
  - { offsetInCU: 0x4784, offset: 0x91DFC, size: 0x8, addend: 0x0, symName: __ZN13ClickableIcon10resetClickEv, symObjAddr: 0x10F8, symBinAddr: 0x100038338, symSize: 0x90 }
  - { offsetInCU: 0x47AC, offset: 0x91E24, size: 0x8, addend: 0x0, symName: __ZNK13ClickableIcon10isClicked2Ev, symObjAddr: 0x1188, symBinAddr: 0x1000383C8, symSize: 0xCC }
  - { offsetInCU: 0x47D4, offset: 0x91E4C, size: 0x8, addend: 0x0, symName: __ZN13ClickableIcon6updateEN2sf7Vector2IfEE, symObjAddr: 0x1254, symBinAddr: 0x100038494, symSize: 0x5A0 }
  - { offsetInCU: 0x4810, offset: 0x91E88, size: 0x8, addend: 0x0, symName: __ZN13ClickableIcon6renderEPN2sf12RenderTargetE, symObjAddr: 0x17F4, symBinAddr: 0x100038A34, symSize: 0xAC }
  - { offsetInCU: 0x3B, offset: 0x91F03, size: 0x8, addend: 0x0, symName: _.str, symObjAddr: 0x4020, symBinAddr: 0x100049D20, symSize: 0x0 }
  - { offsetInCU: 0x6B, offset: 0x91F33, size: 0x8, addend: 0x0, symName: _.str.1, symObjAddr: 0x4080, symBinAddr: 0x100049D80, symSize: 0x0 }
  - { offsetInCU: 0x88, offset: 0x91F50, size: 0x8, addend: 0x0, symName: _.str.2, symObjAddr: 0x40A0, symBinAddr: 0x100049DA0, symSize: 0x0 }
  - { offsetInCU: 0x1006A, offset: 0xA1F32, size: 0x8, addend: 0x0, symName: __ZN8BasementC2EPN2sf12RenderWindowE, symObjAddr: 0x0, symBinAddr: 0x100038B78, symSize: 0xC20 }
  - { offsetInCU: 0x100AC, offset: 0xA1F74, size: 0x8, addend: 0x0, symName: __ZN8BasementC1EPN2sf12RenderWindowE, symObjAddr: 0xCC8, symBinAddr: 0x100039798, symSize: 0x34 }
  - { offsetInCU: 0x100E7, offset: 0xA1FAF, size: 0x8, addend: 0x0, symName: __ZN8BasementD2Ev, symObjAddr: 0xCFC, symBinAddr: 0x1000397CC, symSize: 0xF4 }
  - { offsetInCU: 0x10113, offset: 0xA1FDB, size: 0x8, addend: 0x0, symName: __ZN8BasementD1Ev, symObjAddr: 0xDF0, symBinAddr: 0x1000398C0, symSize: 0x2C }
  - { offsetInCU: 0x1013F, offset: 0xA2007, size: 0x8, addend: 0x0, symName: __ZN8BasementD0Ev, symObjAddr: 0xE1C, symBinAddr: 0x1000398EC, symSize: 0x58 }
  - { offsetInCU: 0x1016B, offset: 0xA2033, size: 0x8, addend: 0x0, symName: __ZN8Basement8endStateEv, symObjAddr: 0xE74, symBinAddr: 0x100039944, symSize: 0x8C }
  - { offsetInCU: 0x10193, offset: 0xA205B, size: 0x8, addend: 0x0, symName: __ZN8Basement6updateERKfPN2sf12RenderWindowE, symObjAddr: 0xF00, symBinAddr: 0x1000399D0, symSize: 0x728 }
  - { offsetInCU: 0x101DC, offset: 0xA20A4, size: 0x8, addend: 0x0, symName: __ZN8Basement6renderEPN2sf12RenderTargetE, symObjAddr: 0x1770, symBinAddr: 0x10003A0F8, symSize: 0x1B0 }
  - { offsetInCU: 0x3B, offset: 0xA211A, size: 0x8, addend: 0x0, symName: _.str, symObjAddr: 0xAE20, symBinAddr: 0x100049DE0, symSize: 0x0 }
  - { offsetInCU: 0x6B, offset: 0xA214A, size: 0x8, addend: 0x0, symName: _.str.1, symObjAddr: 0xAE40, symBinAddr: 0x100049E00, symSize: 0x0 }
  - { offsetInCU: 0x88, offset: 0xA2167, size: 0x8, addend: 0x0, symName: _.str.2, symObjAddr: 0xAE80, symBinAddr: 0x100049E40, symSize: 0x0 }
  - { offsetInCU: 0xA5, offset: 0xA2184, size: 0x8, addend: 0x0, symName: _.str.3, symObjAddr: 0xAEA0, symBinAddr: 0x100049E60, symSize: 0x0 }
  - { offsetInCU: 0xC2, offset: 0xA21A1, size: 0x8, addend: 0x0, symName: _.str.4, symObjAddr: 0xAEC0, symBinAddr: 0x100049E80, symSize: 0x0 }
  - { offsetInCU: 0xDF, offset: 0xA21BE, size: 0x8, addend: 0x0, symName: _.str.5, symObjAddr: 0xAEE0, symBinAddr: 0x100049EA0, symSize: 0x0 }
  - { offsetInCU: 0xFC, offset: 0xA21DB, size: 0x8, addend: 0x0, symName: _.str.6, symObjAddr: 0xAF20, symBinAddr: 0x100049EE0, symSize: 0x0 }
  - { offsetInCU: 0x119, offset: 0xA21F8, size: 0x8, addend: 0x0, symName: _.str.7, symObjAddr: 0xAF40, symBinAddr: 0x100049F00, symSize: 0x0 }
  - { offsetInCU: 0x12A, offset: 0xA2209, size: 0x8, addend: 0x0, symName: _.str.8, symObjAddr: 0xAF60, symBinAddr: 0x100049F20, symSize: 0x0 }
  - { offsetInCU: 0x147, offset: 0xA2226, size: 0x8, addend: 0x0, symName: _.str.9, symObjAddr: 0xAFA0, symBinAddr: 0x100049F60, symSize: 0x0 }
  - { offsetInCU: 0x165, offset: 0xA2244, size: 0x8, addend: 0x0, symName: _.str.10, symObjAddr: 0xB000, symBinAddr: 0x100049FC0, symSize: 0x0 }
  - { offsetInCU: 0x10544, offset: 0xB2623, size: 0x8, addend: 0x0, symName: __ZN8MainMenuC2EPN2sf12RenderWindowE, symObjAddr: 0x0, symBinAddr: 0x10003A340, symSize: 0xF10 }
  - { offsetInCU: 0x10590, offset: 0xB266F, size: 0x8, addend: 0x0, symName: __ZN6ButtonaSERKS_, symObjAddr: 0xF8C, symBinAddr: 0x10003B250, symSize: 0x1C0 }
  - { offsetInCU: 0x105C1, offset: 0xB26A0, size: 0x8, addend: 0x0, symName: __ZN8MainMenuC1EPN2sf12RenderWindowE, symObjAddr: 0x1178, symBinAddr: 0x10003B410, symSize: 0x34 }
  - { offsetInCU: 0x105FC, offset: 0xB26DB, size: 0x8, addend: 0x0, symName: __ZN8MainMenuD2Ev, symObjAddr: 0x11AC, symBinAddr: 0x10003B444, symSize: 0x15C }
  - { offsetInCU: 0x10628, offset: 0xB2707, size: 0x8, addend: 0x0, symName: __ZN8MainMenuD1Ev, symObjAddr: 0x1308, symBinAddr: 0x10003B5A0, symSize: 0x2C }
  - { offsetInCU: 0x10654, offset: 0xB2733, size: 0x8, addend: 0x0, symName: __ZN8MainMenuD0Ev, symObjAddr: 0x1334, symBinAddr: 0x10003B5CC, symSize: 0x58 }
  - { offsetInCU: 0x10680, offset: 0xB275F, size: 0x8, addend: 0x0, symName: __ZN8MainMenu8endStateEv, symObjAddr: 0x138C, symBinAddr: 0x10003B624, symSize: 0x3C }
  - { offsetInCU: 0x106A8, offset: 0xB2787, size: 0x8, addend: 0x0, symName: __ZN8MainMenu6updateERKfPN2sf12RenderWindowE, symObjAddr: 0x1410, symBinAddr: 0x10003B660, symSize: 0x8E0 }
  - { offsetInCU: 0x106F1, offset: 0xB27D0, size: 0x8, addend: 0x0, symName: __ZN8MainMenu6renderEPN2sf12RenderTargetE, symObjAddr: 0x1DF0, symBinAddr: 0x10003BF40, symSize: 0x11C }
  - { offsetInCU: 0x1072D, offset: 0xB280C, size: 0x8, addend: 0x0, symName: __ZN2sf14RectangleShapeaSERKS0_, symObjAddr: 0x1F0C, symBinAddr: 0x10003C05C, symSize: 0x4C }
  - { offsetInCU: 0x1076D, offset: 0xB284C, size: 0x8, addend: 0x0, symName: __ZN2sf5ShapeaSERKS0_, symObjAddr: 0x2028, symBinAddr: 0x10003C0A8, symSize: 0xA0 }
  - { offsetInCU: 0x3B, offset: 0xB28E9, size: 0x8, addend: 0x0, symName: _.str, symObjAddr: 0x4840, symBinAddr: 0x100049FE0, symSize: 0x0 }
  - { offsetInCU: 0x6B, offset: 0xB2919, size: 0x8, addend: 0x0, symName: _.str.1, symObjAddr: 0x48C0, symBinAddr: 0x10004A060, symSize: 0x0 }
  - { offsetInCU: 0x88, offset: 0xB2936, size: 0x8, addend: 0x0, symName: _.str.2, symObjAddr: 0x4940, symBinAddr: 0x10004A0E0, symSize: 0x0 }
  - { offsetInCU: 0xA5, offset: 0xB2953, size: 0x8, addend: 0x0, symName: _.str.3, symObjAddr: 0x4980, symBinAddr: 0x10004A120, symSize: 0x0 }
  - { offsetInCU: 0xD781, offset: 0xC002F, size: 0x8, addend: 0x0, symName: __ZN7MessageC2EffffRN2sf14RectangleShapeE, symObjAddr: 0x0, symBinAddr: 0x10003C1E0, symSize: 0x864 }
  - { offsetInCU: 0xD803, offset: 0xC00B1, size: 0x8, addend: 0x0, symName: __ZN7MessageC1EffffRN2sf14RectangleShapeE, symObjAddr: 0x90C, symBinAddr: 0x10003CA44, symSize: 0x54 }
  - { offsetInCU: 0xD87A, offset: 0xC0128, size: 0x8, addend: 0x0, symName: __ZN7MessageD2Ev, symObjAddr: 0x960, symBinAddr: 0x10003CA98, symSize: 0x2AC }
  - { offsetInCU: 0xD8A6, offset: 0xC0154, size: 0x8, addend: 0x0, symName: __ZN7MessageD1Ev, symObjAddr: 0xC0C, symBinAddr: 0x10003CD44, symSize: 0x2C }
  - { offsetInCU: 0xD8D2, offset: 0xC0180, size: 0x8, addend: 0x0, symName: __ZN7Message4TextENSt3__16vectorINS0_12basic_stringIcNS0_11char_traitsIcEENS0_9allocatorIcEEEENS5_IS7_EEEEi, symObjAddr: 0xC38, symBinAddr: 0x10003CD70, symSize: 0x624 }
  - { offsetInCU: 0xD91C, offset: 0xC01CA, size: 0x8, addend: 0x0, symName: __ZNSt3__16vectorINS_12basic_stringIcNS_11char_traitsIcEENS_9allocatorIcEEEENS4_IS6_EEEixB7v160006Em, symObjAddr: 0x13A4, symBinAddr: 0x10003D394, symSize: 0x74 }
  - { offsetInCU: 0xD954, offset: 0xC0202, size: 0x8, addend: 0x0, symName: __ZN7Message7messageENSt3__112basic_stringIcNS0_11char_traitsIcEENS0_9allocatorIcEEEEffi, symObjAddr: 0x1444, symBinAddr: 0x10003D408, symSize: 0x5EC }
  - { offsetInCU: 0xD9BE, offset: 0xC026C, size: 0x8, addend: 0x0, symName: __ZN7Message6renderEPN2sf12RenderTargetE, symObjAddr: 0x1A30, symBinAddr: 0x10003D9F4, symSize: 0x12C }
  - { offsetInCU: 0x39, offset: 0xC02E5, size: 0x8, addend: 0x0, symName: __ZN7Setting4MposE, symObjAddr: 0x6420, symBinAddr: 0x10005C000, symSize: 0x0 }
  - { offsetInCU: 0xCEB2, offset: 0xCD15E, size: 0x8, addend: 0x0, symName: __ZN7Setting4SposE, symObjAddr: 0x6440, symBinAddr: 0x10005C020, symSize: 0x0 }
  - { offsetInCU: 0xCEC6, offset: 0xCD172, size: 0x8, addend: 0x0, symName: __ZN7Setting6volumeE, symObjAddr: 0x6460, symBinAddr: 0x10005C040, symSize: 0x0 }
  - { offsetInCU: 0xCEDA, offset: 0xCD186, size: 0x8, addend: 0x0, symName: __ZN7Setting7SvolumeE, symObjAddr: 0x6480, symBinAddr: 0x10005C060, symSize: 0x0 }
  - { offsetInCU: 0xCEF0, offset: 0xCD19C, size: 0x8, addend: 0x0, symName: _.str, symObjAddr: 0x64E0, symBinAddr: 0x10004A140, symSize: 0x0 }
  - { offsetInCU: 0xCF0D, offset: 0xCD1B9, size: 0x8, addend: 0x0, symName: _.str.1, symObjAddr: 0x6500, symBinAddr: 0x10004A160, symSize: 0x0 }
  - { offsetInCU: 0xCF2A, offset: 0xCD1D6, size: 0x8, addend: 0x0, symName: _.str.2, symObjAddr: 0x6560, symBinAddr: 0x10004A1C0, symSize: 0x0 }
  - { offsetInCU: 0xCF47, offset: 0xCD1F3, size: 0x8, addend: 0x0, symName: _.str.3, symObjAddr: 0x65C0, symBinAddr: 0x10004A220, symSize: 0x0 }
  - { offsetInCU: 0xCF64, offset: 0xCD210, size: 0x8, addend: 0x0, symName: _.str.4, symObjAddr: 0x6620, symBinAddr: 0x10004A280, symSize: 0x0 }
  - { offsetInCU: 0xCF81, offset: 0xCD22D, size: 0x8, addend: 0x0, symName: _.str.5, symObjAddr: 0x6680, symBinAddr: 0x10004A2E0, symSize: 0x0 }
  - { offsetInCU: 0xCF9E, offset: 0xCD24A, size: 0x8, addend: 0x0, symName: _.str.6, symObjAddr: 0x66E0, symBinAddr: 0x10004A340, symSize: 0x0 }
  - { offsetInCU: 0xCFAF, offset: 0xCD25B, size: 0x8, addend: 0x0, symName: _.str.7, symObjAddr: 0x6740, symBinAddr: 0x10004A3A0, symSize: 0x0 }
  - { offsetInCU: 0xCFC0, offset: 0xCD26C, size: 0x8, addend: 0x0, symName: _.str.8, symObjAddr: 0x67A0, symBinAddr: 0x10004A400, symSize: 0x0 }
  - { offsetInCU: 0xCFDD, offset: 0xCD289, size: 0x8, addend: 0x0, symName: _.str.9, symObjAddr: 0x67C0, symBinAddr: 0x10004A420, symSize: 0x0 }
  - { offsetInCU: 0xCFFA, offset: 0xCD2A6, size: 0x8, addend: 0x0, symName: _.str.10, symObjAddr: 0x67E0, symBinAddr: 0x10004A440, symSize: 0x0 }
  - { offsetInCU: 0xD017, offset: 0xCD2C3, size: 0x8, addend: 0x0, symName: _.str.11, symObjAddr: 0x6820, symBinAddr: 0x10004A480, symSize: 0x0 }
  - { offsetInCU: 0xD034, offset: 0xCD2E0, size: 0x8, addend: 0x0, symName: _.str.12, symObjAddr: 0x68A0, symBinAddr: 0x10004A500, symSize: 0x0 }
  - { offsetInCU: 0xD051, offset: 0xCD2FD, size: 0x8, addend: 0x0, symName: _.str.13, symObjAddr: 0x68E0, symBinAddr: 0x10004A540, symSize: 0x0 }
  - { offsetInCU: 0xD06E, offset: 0xCD31A, size: 0x8, addend: 0x0, symName: _.str.14, symObjAddr: 0x6940, symBinAddr: 0x10004A5A0, symSize: 0x0 }
  - { offsetInCU: 0xD083, offset: 0xCD32F, size: 0x8, addend: 0x0, symName: __ZN7Setting6updateEN2sf7Vector2IfEE, symObjAddr: 0x285C, symBinAddr: 0x1000401F8, symSize: 0xD24 }
  - { offsetInCU: 0xD0A9, offset: 0xCD355, size: 0x8, addend: 0x0, symName: __ZZN7Setting6updateEN2sf7Vector2IfEEE24wasPlus1ClickedLastFrame, symObjAddr: 0x6E140, symBinAddr: 0x10005F200, symSize: 0x0 }
  - { offsetInCU: 0xD0BF, offset: 0xCD36B, size: 0x8, addend: 0x0, symName: __ZZN7Setting6updateEN2sf7Vector2IfEEE26wasDelete1ClickedLastFrame, symObjAddr: 0x6E160, symBinAddr: 0x10005F220, symSize: 0x0 }
  - { offsetInCU: 0xD0D5, offset: 0xCD381, size: 0x8, addend: 0x0, symName: __ZZN7Setting6updateEN2sf7Vector2IfEEE24wasPlus2ClickedLastFrame, symObjAddr: 0x6E180, symBinAddr: 0x10005F240, symSize: 0x0 }
  - { offsetInCU: 0xD0EB, offset: 0xCD397, size: 0x8, addend: 0x0, symName: __ZZN7Setting6updateEN2sf7Vector2IfEEE26wasDelete2ClickedLastFrame, symObjAddr: 0x6E1A0, symBinAddr: 0x10005F260, symSize: 0x0 }
  - { offsetInCU: 0xD101, offset: 0xCD3AD, size: 0x8, addend: 0x0, symName: __ZZN7Setting6updateEN2sf7Vector2IfEEE3SFX, symObjAddr: 0x64A0, symBinAddr: 0x10005C080, symSize: 0x0 }
  - { offsetInCU: 0xD117, offset: 0xCD3C3, size: 0x8, addend: 0x0, symName: __ZZN7Setting6updateEN2sf7Vector2IfEEE5MUSIC, symObjAddr: 0x64C0, symBinAddr: 0x10005C0A0, symSize: 0x0 }
  - { offsetInCU: 0xD1A5, offset: 0xCD451, size: 0x8, addend: 0x0, symName: _.str.15, symObjAddr: 0x6980, symBinAddr: 0x10004A5E0, symSize: 0x0 }
  - { offsetInCU: 0xD1C2, offset: 0xCD46E, size: 0x8, addend: 0x0, symName: _.str.16, symObjAddr: 0x69A0, symBinAddr: 0x10004A600, symSize: 0x0 }
  - { offsetInCU: 0xD1DF, offset: 0xCD48B, size: 0x8, addend: 0x0, symName: _.str.17, symObjAddr: 0x69C0, symBinAddr: 0x10004A620, symSize: 0x0 }
  - { offsetInCU: 0xD1F0, offset: 0xCD49C, size: 0x8, addend: 0x0, symName: _.str.18, symObjAddr: 0x69E0, symBinAddr: 0x10004A640, symSize: 0x0 }
  - { offsetInCU: 0xD201, offset: 0xCD4AD, size: 0x8, addend: 0x0, symName: _.str.19, symObjAddr: 0x6A00, symBinAddr: 0x10004A660, symSize: 0x0 }
  - { offsetInCU: 0xD212, offset: 0xCD4BE, size: 0x8, addend: 0x0, symName: _.str.20, symObjAddr: 0x6A20, symBinAddr: 0x10004A680, symSize: 0x0 }
  - { offsetInCU: 0xD22F, offset: 0xCD4DB, size: 0x8, addend: 0x0, symName: _.str.21, symObjAddr: 0x6A60, symBinAddr: 0x10004A6C0, symSize: 0x0 }
  - { offsetInCU: 0xEF54, offset: 0xCF200, size: 0x8, addend: 0x0, symName: __ZN7SettingC2Ev, symObjAddr: 0x0, symBinAddr: 0x10003DBB8, symSize: 0x1DC4 }
  - { offsetInCU: 0xEF86, offset: 0xCF232, size: 0x8, addend: 0x0, symName: __ZN7SettingC1Ev, symObjAddr: 0x1FE0, symBinAddr: 0x10003F97C, symSize: 0x2C }
  - { offsetInCU: 0xEFB2, offset: 0xCF25E, size: 0x8, addend: 0x0, symName: __ZN7SettingD2Ev, symObjAddr: 0x200C, symBinAddr: 0x10003F9A8, symSize: 0x6B8 }
  - { offsetInCU: 0xEFDE, offset: 0xCF28A, size: 0x8, addend: 0x0, symName: __ZN7SettingD1Ev, symObjAddr: 0x26C4, symBinAddr: 0x100040060, symSize: 0x2C }
  - { offsetInCU: 0xF00A, offset: 0xCF2B6, size: 0x8, addend: 0x0, symName: __ZN7SettingD0Ev, symObjAddr: 0x26F0, symBinAddr: 0x10004008C, symSize: 0x58 }
  - { offsetInCU: 0xF035, offset: 0xCF2E1, size: 0x8, addend: 0x0, symName: __ZN7Setting10reset_quitEv, symObjAddr: 0x2748, symBinAddr: 0x1000400E4, symSize: 0x88 }
  - { offsetInCU: 0xF05D, offset: 0xCF309, size: 0x8, addend: 0x0, symName: __ZN7Setting11return_quitEv, symObjAddr: 0x27D0, symBinAddr: 0x10004016C, symSize: 0x8C }
  - { offsetInCU: 0xF085, offset: 0xCF331, size: 0x8, addend: 0x0, symName: __ZN7Setting7playSFXEv, symObjAddr: 0x3580, symBinAddr: 0x100040F1C, symSize: 0x40 }
  - { offsetInCU: 0xF0AD, offset: 0xCF359, size: 0x8, addend: 0x0, symName: __ZN7Setting9playMusicEv, symObjAddr: 0x35C0, symBinAddr: 0x100040F5C, symSize: 0x74 }
  - { offsetInCU: 0xF0D5, offset: 0xCF381, size: 0x8, addend: 0x0, symName: __ZN7Setting10pauseMusicEv, symObjAddr: 0x3634, symBinAddr: 0x100040FD0, symSize: 0x74 }
  - { offsetInCU: 0xF0FD, offset: 0xCF3A9, size: 0x8, addend: 0x0, symName: __ZN7Setting14render_settingEPN2sf12RenderTargetE, symObjAddr: 0x36A8, symBinAddr: 0x100041044, symSize: 0x354 }
  - { offsetInCU: 0x3B, offset: 0xCF420, size: 0x8, addend: 0x0, symName: _.str, symObjAddr: 0x30A0, symBinAddr: 0x10004A740, symSize: 0x0 }
  - { offsetInCU: 0x6B, offset: 0xCF450, size: 0x8, addend: 0x0, symName: _.str.1, symObjAddr: 0x3120, symBinAddr: 0x10004A7C0, symSize: 0x0 }
  - { offsetInCU: 0x88, offset: 0xCF46D, size: 0x8, addend: 0x0, symName: _.str.2, symObjAddr: 0x3160, symBinAddr: 0x10004A800, symSize: 0x0 }
  - { offsetInCU: 0xA5, offset: 0xCF48A, size: 0x8, addend: 0x0, symName: _.str.3, symObjAddr: 0x31C0, symBinAddr: 0x10004A860, symSize: 0x0 }
  - { offsetInCU: 0x569B, offset: 0xD4A80, size: 0x8, addend: 0x0, symName: __ZN5MusicC2Ev, symObjAddr: 0x0, symBinAddr: 0x100041430, symSize: 0x6F0 }
  - { offsetInCU: 0x56CD, offset: 0xD4AB2, size: 0x8, addend: 0x0, symName: __ZN5MusicC1Ev, symObjAddr: 0x878, symBinAddr: 0x100041B20, symSize: 0x2C }
  - { offsetInCU: 0x56F9, offset: 0xD4ADE, size: 0x8, addend: 0x0, symName: __ZN5MusicD2Ev, symObjAddr: 0x8A4, symBinAddr: 0x100041B4C, symSize: 0xA0 }
  - { offsetInCU: 0x5725, offset: 0xD4B0A, size: 0x8, addend: 0x0, symName: __ZN5MusicD1Ev, symObjAddr: 0x944, symBinAddr: 0x100041BEC, symSize: 0x2C }
  - { offsetInCU: 0x5751, offset: 0xD4B36, size: 0x8, addend: 0x0, symName: __ZN5Music6renderEPN2sf12RenderTargetE, symObjAddr: 0x970, symBinAddr: 0x100041C18, symSize: 0x14 }
  - { offsetInCU: 0x5788, offset: 0xD4B6D, size: 0x8, addend: 0x0, symName: __ZN5Music9setVolumeEf, symObjAddr: 0x984, symBinAddr: 0x100041C2C, symSize: 0xA4 }
  - { offsetInCU: 0x57BF, offset: 0xD4BA4, size: 0x8, addend: 0x0, symName: __ZN5Music9getVolumeEv, symObjAddr: 0xA28, symBinAddr: 0x100041CD0, symSize: 0x8C }
  - { offsetInCU: 0x57E7, offset: 0xD4BCC, size: 0x8, addend: 0x0, symName: __ZN5Music10setSVolumeEf, symObjAddr: 0xAB4, symBinAddr: 0x100041D5C, symSize: 0xA8 }
  - { offsetInCU: 0x581E, offset: 0xD4C03, size: 0x8, addend: 0x0, symName: __ZN5Music10getSVolumeEv, symObjAddr: 0xB5C, symBinAddr: 0x100041E04, symSize: 0x8C }
  - { offsetInCU: 0x3B, offset: 0xD4C6A, size: 0x8, addend: 0x0, symName: _.str, symObjAddr: 0x3DE0, symBinAddr: 0x10004A8A0, symSize: 0x0 }
  - { offsetInCU: 0x6B, offset: 0xD4C9A, size: 0x8, addend: 0x0, symName: _.str.1, symObjAddr: 0x3E40, symBinAddr: 0x10004A900, symSize: 0x0 }
  - { offsetInCU: 0x88, offset: 0xD4CB7, size: 0x8, addend: 0x0, symName: _.str.2, symObjAddr: 0x3E80, symBinAddr: 0x10004A940, symSize: 0x0 }
  - { offsetInCU: 0xA5, offset: 0xD4CD4, size: 0x8, addend: 0x0, symName: _.str.3, symObjAddr: 0x3EC0, symBinAddr: 0x10004A980, symSize: 0x0 }
  - { offsetInCU: 0xBF, offset: 0xD4CEE, size: 0x8, addend: 0x0, symName: __ZN2sfeqIfEEbRKNS_7Vector2IT_EES5_, symObjAddr: 0x1688, symBinAddr: 0x100043430, symSize: 0x204 }
  - { offsetInCU: 0x4605, offset: 0xD9234, size: 0x8, addend: 0x0, symName: __ZN15InteractableObjC2EiiffNSt3__112basic_stringIcNS0_11char_traitsIcEENS0_9allocatorIcEEEE, symObjAddr: 0x0, symBinAddr: 0x100041F28, symSize: 0x5C4 }
  - { offsetInCU: 0x4683, offset: 0xD92B2, size: 0x8, addend: 0x0, symName: __ZN15InteractableObjC1EiiffNSt3__112basic_stringIcNS0_11char_traitsIcEENS0_9allocatorIcEEEE, symObjAddr: 0x744, symBinAddr: 0x1000424EC, symSize: 0x54 }
  - { offsetInCU: 0x46FB, offset: 0xD932A, size: 0x8, addend: 0x0, symName: __ZN15InteractableObjD2Ev, symObjAddr: 0x798, symBinAddr: 0x100042540, symSize: 0x1CC }
  - { offsetInCU: 0x4727, offset: 0xD9356, size: 0x8, addend: 0x0, symName: __ZN15InteractableObjD1Ev, symObjAddr: 0x964, symBinAddr: 0x10004270C, symSize: 0x2C }
  - { offsetInCU: 0x4753, offset: 0xD9382, size: 0x8, addend: 0x0, symName: __ZN15InteractableObjD0Ev, symObjAddr: 0x990, symBinAddr: 0x100042738, symSize: 0x58 }
  - { offsetInCU: 0x477F, offset: 0xD93AE, size: 0x8, addend: 0x0, symName: __ZNK15InteractableObj8getInputEv, symObjAddr: 0x9E8, symBinAddr: 0x100042790, symSize: 0x8C }
  - { offsetInCU: 0x47A7, offset: 0xD93D6, size: 0x8, addend: 0x0, symName: __ZN15InteractableObj9IsPressedEN2sf7Vector2IfEE, symObjAddr: 0xA74, symBinAddr: 0x10004281C, symSize: 0xBFC }
  - { offsetInCU: 0x481F, offset: 0xD944E, size: 0x8, addend: 0x0, symName: __Z4sqrtB7v160006f, symObjAddr: 0x1670, symBinAddr: 0x100043418, symSize: 0x18 }
  - { offsetInCU: 0x484F, offset: 0xD947E, size: 0x8, addend: 0x0, symName: __ZN15InteractableObj6updateERKf, symObjAddr: 0x188C, symBinAddr: 0x100043634, symSize: 0x14 }
  - { offsetInCU: 0x4886, offset: 0xD94B5, size: 0x8, addend: 0x0, symName: __ZN15InteractableObj6renderEPN2sf12RenderTargetE, symObjAddr: 0x18A0, symBinAddr: 0x100043648, symSize: 0xAC }
...
