---
triple:          'x86_64-apple-darwin'
binary-path:     my_game
relocations:
  - { offsetInCU: 0x26, offset: 0x26, size: 0x8, addend: 0x0, symName: _main, symObjAddr: 0x0, symBinAddr: 0x100001CB0, symSize: 0x300 }
  - { offsetInCU: 0x18F88, offset: 0x18F88, size: 0x8, addend: 0x0, symName: _main, symObjAddr: 0x0, symBinAddr: 0x100001CB0, symSize: 0x300 }
  - { offsetInCU: 0x3B, offset: 0x1A2B8, size: 0x8, addend: 0x0, symName: _.str, symObjAddr: 0x11000, symBinAddr: 0x10002E680, symSize: 0x0 }
  - { offsetInCU: 0x6B, offset: 0x1A2E8, size: 0x8, addend: 0x0, symName: _.str.1, symObjAddr: 0x11040, symBinAddr: 0x10002E6C0, symSize: 0x0 }
  - { offsetInCU: 0x88, offset: 0x1A305, size: 0x8, addend: 0x0, symName: _.str.2, symObjAddr: 0x11060, symBinAddr: 0x10002E6E0, symSize: 0x0 }
  - { offsetInCU: 0xA5, offset: 0x1A322, size: 0x8, addend: 0x0, symName: _.str.3, symObjAddr: 0x110A0, symBinAddr: 0x10002E720, symSize: 0x0 }
  - { offsetInCU: 0xC2, offset: 0x1A33F, size: 0x8, addend: 0x0, symName: _.str.4, symObjAddr: 0x11100, symBinAddr: 0x10002E780, symSize: 0x0 }
  - { offsetInCU: 0xDF, offset: 0x1A35C, size: 0x8, addend: 0x0, symName: _.str.5, symObjAddr: 0x11120, symBinAddr: 0x10002E7A0, symSize: 0x0 }
  - { offsetInCU: 0xFC, offset: 0x1A379, size: 0x8, addend: 0x0, symName: _.str.6, symObjAddr: 0x11140, symBinAddr: 0x10002E7C0, symSize: 0x0 }
  - { offsetInCU: 0xB97E, offset: 0x25BFB, size: 0x8, addend: 0x0, symName: __ZNSt3__124__put_character_sequenceB7v160006IcNS_11char_traitsIcEEEERNS_13basic_ostreamIT_T0_EES7_PKS4_m, symObjAddr: 0x4F60, symBinAddr: 0x100006F20, symSize: 0x760 }
  - { offsetInCU: 0xEB81, offset: 0x28DFE, size: 0x8, addend: 0x0, symName: __ZNSt3__1lsB7v160006INS_11char_traitsIcEEEERNS_13basic_ostreamIcT_EES6_PKc, symObjAddr: 0x1A20, symBinAddr: 0x1000039E0, symSize: 0x40 }
  - { offsetInCU: 0xEBCA, offset: 0x28E47, size: 0x8, addend: 0x0, symName: __ZNSt3__14endlB7v160006IcNS_11char_traitsIcEEEERNS_13basic_ostreamIT_T0_EES7_, symObjAddr: 0x2180, symBinAddr: 0x100004140, symSize: 0xB0 }
  - { offsetInCU: 0xEC0C, offset: 0x28E89, size: 0x8, addend: 0x0, symName: __ZNSt3__1neB7v160006ERKNS_16__deque_iteratorIP9GameStatePS2_RS2_PS3_lLl512EEES8_, symObjAddr: 0x2F60, symBinAddr: 0x100004F20, symSize: 0x30 }
  - { offsetInCU: 0xEC4C, offset: 0x28EC9, size: 0x8, addend: 0x0, symName: __ZNSt3__1eqB7v160006ERKNS_16__deque_iteratorIP9GameStatePS2_RS2_PS3_lLl512EEES8_, symObjAddr: 0x3540, symBinAddr: 0x100005500, symSize: 0xA0 }
  - { offsetInCU: 0xEC8C, offset: 0x28F09, size: 0x8, addend: 0x0, symName: __ZNSt3__130__libcpp_is_constant_evaluatedB7v160006Ev, symObjAddr: 0x3730, symBinAddr: 0x1000056F0, symSize: 0x10 }
  - { offsetInCU: 0xECAA, offset: 0x28F27, size: 0x8, addend: 0x0, symName: __ZNSt3__119__libcpp_deallocateB7v160006EPvmm, symObjAddr: 0x3740, symBinAddr: 0x100005700, symSize: 0x30 }
  - { offsetInCU: 0xECF6, offset: 0x28F73, size: 0x8, addend: 0x0, symName: __ZNSt3__127__do_deallocate_handle_sizeB7v160006IJEEEvPvmDpT_, symObjAddr: 0x3770, symBinAddr: 0x100005730, symSize: 0x20 }
  - { offsetInCU: 0xED38, offset: 0x28FB5, size: 0x8, addend: 0x0, symName: __ZNSt3__124__libcpp_operator_deleteB7v160006IJPvEEEvDpT_, symObjAddr: 0x3790, symBinAddr: 0x100005750, symSize: 0x20 }
  - { offsetInCU: 0xED6F, offset: 0x28FEC, size: 0x8, addend: 0x0, symName: __ZNSt3__112__to_addressB7v160006IPP9GameStateEEPT_S5_, symObjAddr: 0x3B30, symBinAddr: 0x100005AF0, symSize: 0x10 }
  - { offsetInCU: 0xEDA6, offset: 0x29023, size: 0x8, addend: 0x0, symName: __ZNSt3__118__debug_db_erase_cB7v160006INS_12basic_stringIjNS_11char_traitsIjEENS_9allocatorIjEEEEEEvPT_, symObjAddr: 0x3FD0, symBinAddr: 0x100005F90, symSize: 0x10 }
  - { offsetInCU: 0xEDD9, offset: 0x29056, size: 0x8, addend: 0x0, symName: __ZNSt3__112__to_addressB7v160006IP9GameStateEEPT_S4_, symObjAddr: 0x4CF0, symBinAddr: 0x100006CB0, symSize: 0x10 }
  - { offsetInCU: 0xEE10, offset: 0x2908D, size: 0x8, addend: 0x0, symName: __ZNSt3__116__pad_and_outputB7v160006IcNS_11char_traitsIcEEEENS_19ostreambuf_iteratorIT_T0_EES6_PKS4_S8_S8_RNS_8ios_baseES4_, symObjAddr: 0x5780, symBinAddr: 0x100007740, symSize: 0x6F0 }
  - { offsetInCU: 0xEEF9, offset: 0x29176, size: 0x8, addend: 0x0, symName: __ZNSt3__119__debug_db_insert_cB7v160006INS_12basic_stringIcNS_11char_traitsIcEENS_9allocatorIcEEEEEEvPT_, symObjAddr: 0x6490, symBinAddr: 0x100008450, symSize: 0x10 }
  - { offsetInCU: 0xEF2C, offset: 0x291A9, size: 0x8, addend: 0x0, symName: __ZNSt3__112__to_addressB7v160006IKcEEPT_S3_, symObjAddr: 0x6530, symBinAddr: 0x1000084F0, symSize: 0x10 }
  - { offsetInCU: 0xEF96, offset: 0x29213, size: 0x8, addend: 0x0, symName: __ZNSt3__19use_facetB7v160006INS_5ctypeIcEEEERKT_RKNS_6localeE, symObjAddr: 0x6AB0, symBinAddr: 0x100008A70, symSize: 0x30 }
  - { offsetInCU: 0xF467, offset: 0x296E4, size: 0x8, addend: 0x0, symName: __ZNSt3__118__constexpr_strlenB7v160006EPKc, symObjAddr: 0x6C00, symBinAddr: 0x100008BC0, symSize: 0x20 }
  - { offsetInCU: 0xF495, offset: 0x29712, size: 0x8, addend: 0x0, symName: __ZNSt3__13maxB7v160006ImEERKT_S3_S3_, symObjAddr: 0x9B60, symBinAddr: 0x10000BB20, symSize: 0x30 }
  - { offsetInCU: 0xF964, offset: 0x29BE1, size: 0x8, addend: 0x0, symName: __ZNSt3__14swapB7v160006IPPP9GameStateEEvRT_S6_, symObjAddr: 0xB340, symBinAddr: 0x10000D300, symSize: 0x100 }
  - { offsetInCU: 0xF9B8, offset: 0x29C35, size: 0x8, addend: 0x0, symName: __ZNSt3__14moveB7v160006IPPP9GameStateS4_EET0_T_S6_S5_, symObjAddr: 0xB4C0, symBinAddr: 0x10000D480, symSize: 0x210 }
  - { offsetInCU: 0xFA38, offset: 0x29CB5, size: 0x8, addend: 0x0, symName: __ZNSt3__16__moveB7v160006INS_17_ClassicAlgPolicyEPPP9GameStateS5_S5_EENS_4pairIT0_T2_EES7_T1_S8_, symObjAddr: 0xBCD0, symBinAddr: 0x10000DC90, symSize: 0x210 }
  - { offsetInCU: 0xFAAB, offset: 0x29D28, size: 0x8, addend: 0x0, symName: __ZNSt3__123__dispatch_copy_or_moveB7v160006INS_17_ClassicAlgPolicyENS_11__move_loopIS1_EENS_14__move_trivialEPPP9GameStateS8_S8_EENS_4pairIT2_T4_EESA_T3_SB_, symObjAddr: 0xBEE0, symBinAddr: 0x10000DEA0, symSize: 0x230 }
  - { offsetInCU: 0xFB30, offset: 0x29DAD, size: 0x8, addend: 0x0, symName: __ZNSt3__121__unwrap_and_dispatchB7v160006INS_10__overloadINS_11__move_loopINS_17_ClassicAlgPolicyEEENS_14__move_trivialEEEPPP9GameStateSA_SA_Li0EEENS_4pairIT0_T2_EESC_T1_SD_, symObjAddr: 0xC110, symBinAddr: 0x10000E0D0, symSize: 0x650 }
  - { offsetInCU: 0xFBCE, offset: 0x29E4B, size: 0x8, addend: 0x0, symName: __ZNSt3__114__unwrap_rangeB7v160006IPPP9GameStateS4_EENS_4pairIT0_S6_EET_S8_, symObjAddr: 0xC760, symBinAddr: 0x10000E720, symSize: 0x300 }
  - { offsetInCU: 0xFD13, offset: 0x29F90, size: 0x8, addend: 0x0, symName: __ZNSt3__113__unwrap_iterB7v160006IPPP9GameStateNS_18__unwrap_iter_implIS4_Lb1EEELi0EEEDTclsrT0_8__unwrapclsr3stdE7declvalIT_EEEES8_, symObjAddr: 0xCC70, symBinAddr: 0x10000EC30, symSize: 0x20 }
  - { offsetInCU: 0xFD5A, offset: 0x29FD7, size: 0x8, addend: 0x0, symName: __ZNSt3__19make_pairB7v160006IPPP9GameStateS4_EENS_4pairINS_18__unwrap_ref_decayIT_E4typeENS6_IT0_E4typeEEEOS7_OSA_, symObjAddr: 0xCC90, symBinAddr: 0x10000EC50, symSize: 0x190 }
  - { offsetInCU: 0xFDAE, offset: 0x2A02B, size: 0x8, addend: 0x0, symName: __ZNSt3__114__rewrap_rangeB7v160006IPPP9GameStateS4_EET_S5_T0_, symObjAddr: 0xCE20, symBinAddr: 0x10000EDE0, symSize: 0x30 }
  - { offsetInCU: 0xFDFD, offset: 0x2A07A, size: 0x8, addend: 0x0, symName: __ZNSt3__113__rewrap_iterB7v160006IPPP9GameStateS4_NS_18__unwrap_iter_implIS4_Lb1EEEEET_S7_T0_, symObjAddr: 0xCE50, symBinAddr: 0x10000EE10, symSize: 0x60 }
  - { offsetInCU: 0xFE55, offset: 0x2A0D2, size: 0x8, addend: 0x0, symName: __ZNSt3__119__copy_trivial_implB7v160006IPP9GameStateS3_EENS_4pairIPT_PT0_EES6_S6_S8_, symObjAddr: 0xCEB0, symBinAddr: 0x10000EE70, symSize: 0x350 }
  - { offsetInCU: 0xFEC8, offset: 0x2A145, size: 0x8, addend: 0x0, symName: __ZNSt3__19make_pairB7v160006IRPPP9GameStateS4_EENS_4pairINS_18__unwrap_ref_decayIT_E4typeENS7_IT0_E4typeEEEOS8_OSB_, symObjAddr: 0xD200, symBinAddr: 0x10000F1C0, symSize: 0x190 }
  - { offsetInCU: 0xFF6F, offset: 0x2A1EC, size: 0x8, addend: 0x0, symName: __ZNSt3__18distanceB7v160006INS_13move_iteratorIPPP9GameStateEEEENS_15iterator_traitsIT_E15difference_typeES8_S8_, symObjAddr: 0xD540, symBinAddr: 0x10000F500, symSize: 0x2C0 }
  - { offsetInCU: 0xFFBD, offset: 0x2A23A, size: 0x8, addend: 0x0, symName: __ZNSt3__110__distanceB7v160006INS_13move_iteratorIPPP9GameStateEEEENS_15iterator_traitsIT_E15difference_typeES8_S8_NS_26random_access_iterator_tagE, symObjAddr: 0xD940, symBinAddr: 0x10000F900, symSize: 0x1E0 }
  - { offsetInCU: 0x10017, offset: 0x2A294, size: 0x8, addend: 0x0, symName: __ZNSt3__1miB7v160006IPPP9GameStateS4_EENS_13move_iteratorIT_E15difference_typeERKS7_RKNS5_IT0_EE, symObjAddr: 0xDB20, symBinAddr: 0x10000FAE0, symSize: 0x40 }
  - { offsetInCU: 0x10069, offset: 0x2A2E6, size: 0x8, addend: 0x0, symName: __ZNSt3__117__libcpp_allocateB7v160006Emm, symObjAddr: 0xE0B0, symBinAddr: 0x100010070, symSize: 0x20 }
  - { offsetInCU: 0x100A9, offset: 0x2A326, size: 0x8, addend: 0x0, symName: __ZNSt3__121__libcpp_operator_newB7v160006IJmEEEPvDpT_, symObjAddr: 0xE0F0, symBinAddr: 0x1000100B0, symSize: 0x20 }
  - { offsetInCU: 0x100E4, offset: 0x2A361, size: 0x8, addend: 0x0, symName: __ZNSt3__113move_backwardB7v160006IPPP9GameStateS4_EET0_T_S6_S5_, symObjAddr: 0xE110, symBinAddr: 0x1000100D0, symSize: 0x210 }
  - { offsetInCU: 0x10145, offset: 0x2A3C2, size: 0x8, addend: 0x0, symName: __ZNSt3__115__move_backwardB7v160006INS_17_ClassicAlgPolicyEPPP9GameStateS5_S5_EENS_4pairIT0_T2_EES7_T1_S8_, symObjAddr: 0xE320, symBinAddr: 0x1000102E0, symSize: 0x210 }
  - { offsetInCU: 0x101B8, offset: 0x2A435, size: 0x8, addend: 0x0, symName: __ZNSt3__123__dispatch_copy_or_moveB7v160006INS_17_ClassicAlgPolicyENS_20__move_backward_loopIS1_EENS_23__move_backward_trivialEPPP9GameStateS8_S8_EENS_4pairIT2_T4_EESA_T3_SB_, symObjAddr: 0xE530, symBinAddr: 0x1000104F0, symSize: 0x230 }
  - { offsetInCU: 0x1023D, offset: 0x2A4BA, size: 0x8, addend: 0x0, symName: __ZNSt3__121__unwrap_and_dispatchB7v160006INS_10__overloadINS_20__move_backward_loopINS_17_ClassicAlgPolicyEEENS_23__move_backward_trivialEEEPPP9GameStateSA_SA_Li0EEENS_4pairIT0_T2_EESC_T1_SD_, symObjAddr: 0xE760, symBinAddr: 0x100010720, symSize: 0x650 }
  - { offsetInCU: 0x10322, offset: 0x2A59F, size: 0x8, addend: 0x0, symName: __ZNSt3__128__copy_backward_trivial_implB7v160006IPP9GameStateS3_EENS_4pairIPT_PT0_EES6_S6_S8_, symObjAddr: 0xEFC0, symBinAddr: 0x100010F80, symSize: 0x370 }
  - { offsetInCU: 0x10398, offset: 0x2A615, size: 0x8, addend: 0x0, symName: __ZNSt3__19make_pairB7v160006IRPPP9GameStateS5_EENS_4pairINS_18__unwrap_ref_decayIT_E4typeENS7_IT0_E4typeEEEOS8_OSB_, symObjAddr: 0xF330, symBinAddr: 0x1000112F0, symSize: 0x190 }
  - { offsetInCU: 0x103EC, offset: 0x2A669, size: 0x8, addend: 0x0, symName: __ZNSt3__13maxB7v160006ImNS_6__lessImmEEEERKT_S5_S5_T0_, symObjAddr: 0xF4C0, symBinAddr: 0x100011480, symSize: 0x170 }
  - { offsetInCU: 0x1048B, offset: 0x2A708, size: 0x8, addend: 0x0, symName: __ZNSt3__119__allocate_at_leastB7v160006INS_9allocatorIPP9GameStateEEEENS_19__allocation_resultINS_16allocator_traitsIT_E7pointerEEERS8_m, symObjAddr: 0xFBC0, symBinAddr: 0x100011B80, symSize: 0x210 }
  - { offsetInCU: 0x105E6, offset: 0x2A863, size: 0x8, addend: 0x0, symName: __ZSt28__throw_bad_array_new_lengthB7v160006v, symObjAddr: 0xE070, symBinAddr: 0x100010030, symSize: 0x40 }
  - { offsetInCU: 0x1329A, offset: 0x2D517, size: 0x8, addend: 0x0, symName: __ZN4GameC2Ev, symObjAddr: 0x0, symBinAddr: 0x100001FD0, symSize: 0x130 }
  - { offsetInCU: 0x132C6, offset: 0x2D543, size: 0x8, addend: 0x0, symName: __ZNSt3__15stackIP9GameStateNS_5dequeIS2_NS_9allocatorIS2_EEEEEC1B7v160006Ev, symObjAddr: 0x130, symBinAddr: 0x100002100, symSize: 0x20 }
  - { offsetInCU: 0x132F0, offset: 0x2D56D, size: 0x8, addend: 0x0, symName: __ZN4Game10initWindowEv, symObjAddr: 0x150, symBinAddr: 0x100002120, symSize: 0x690 }
  - { offsetInCU: 0x13319, offset: 0x2D596, size: 0x8, addend: 0x0, symName: __ZN4Game10initStatesEv, symObjAddr: 0x7E0, symBinAddr: 0x1000027B0, symSize: 0x260 }
  - { offsetInCU: 0x13342, offset: 0x2D5BF, size: 0x8, addend: 0x0, symName: __ZN4Game3runEv, symObjAddr: 0xA40, symBinAddr: 0x100002A10, symSize: 0x330 }
  - { offsetInCU: 0x1338C, offset: 0x2D609, size: 0x8, addend: 0x0, symName: __ZN4Game6updateEv, symObjAddr: 0xD70, symBinAddr: 0x100002D40, symSize: 0x580 }
  - { offsetInCU: 0x133B4, offset: 0x2D631, size: 0x8, addend: 0x0, symName: __ZN4Game6renderEv, symObjAddr: 0x12F0, symBinAddr: 0x1000032C0, symSize: 0x330 }
  - { offsetInCU: 0x133DD, offset: 0x2D65A, size: 0x8, addend: 0x0, symName: __ZNSt3__15stackIP9GameStateNS_5dequeIS2_NS_9allocatorIS2_EEEEED1Ev, symObjAddr: 0x1620, symBinAddr: 0x1000035F0, symSize: 0x20 }
  - { offsetInCU: 0x13409, offset: 0x2D686, size: 0x8, addend: 0x0, symName: __ZN4GameC1Ev, symObjAddr: 0x1650, symBinAddr: 0x100003610, symSize: 0x20 }
  - { offsetInCU: 0x13435, offset: 0x2D6B2, size: 0x8, addend: 0x0, symName: __ZN4GameD2Ev, symObjAddr: 0x1670, symBinAddr: 0x100003630, symSize: 0x2B0 }
  - { offsetInCU: 0x13461, offset: 0x2D6DE, size: 0x8, addend: 0x0, symName: __ZNKSt3__15stackIP9GameStateNS_5dequeIS2_NS_9allocatorIS2_EEEEE5emptyB7v160006Ev, symObjAddr: 0x1920, symBinAddr: 0x1000038E0, symSize: 0x20 }
  - { offsetInCU: 0x13487, offset: 0x2D704, size: 0x8, addend: 0x0, symName: __ZNSt3__15stackIP9GameStateNS_5dequeIS2_NS_9allocatorIS2_EEEEE3topB7v160006Ev, symObjAddr: 0x1940, symBinAddr: 0x100003900, symSize: 0x20 }
  - { offsetInCU: 0x134AD, offset: 0x2D72A, size: 0x8, addend: 0x0, symName: __ZNSt3__15stackIP9GameStateNS_5dequeIS2_NS_9allocatorIS2_EEEEE3popB7v160006Ev, symObjAddr: 0x1960, symBinAddr: 0x100003920, symSize: 0x20 }
  - { offsetInCU: 0x134D3, offset: 0x2D750, size: 0x8, addend: 0x0, symName: __ZN4GameD1Ev, symObjAddr: 0x1980, symBinAddr: 0x100003940, symSize: 0x20 }
  - { offsetInCU: 0x134FF, offset: 0x2D77C, size: 0x8, addend: 0x0, symName: __ZN4GameD0Ev, symObjAddr: 0x19A0, symBinAddr: 0x100003960, symSize: 0x50 }
  - { offsetInCU: 0x1352B, offset: 0x2D7A8, size: 0x8, addend: 0x0, symName: __ZN4Game14endApplicationEv, symObjAddr: 0x19F0, symBinAddr: 0x1000039B0, symSize: 0x30 }
  - { offsetInCU: 0x13553, offset: 0x2D7D0, size: 0x8, addend: 0x0, symName: __ZN2sf15ContextSettingsC1Ejjjjjjb, symObjAddr: 0x1A60, symBinAddr: 0x100003A20, symSize: 0x60 }
  - { offsetInCU: 0x135E6, offset: 0x2D863, size: 0x8, addend: 0x0, symName: __ZN2sf6StringD1Ev, symObjAddr: 0x1AC0, symBinAddr: 0x100003A80, symSize: 0x20 }
  - { offsetInCU: 0x13612, offset: 0x2D88F, size: 0x8, addend: 0x0, symName: __ZN4Game13initVariablesEv, symObjAddr: 0x1AE0, symBinAddr: 0x100003AA0, symSize: 0x10 }
  - { offsetInCU: 0x1363A, offset: 0x2D8B7, size: 0x8, addend: 0x0, symName: __ZNSt3__15stackIP9GameStateNS_5dequeIS2_NS_9allocatorIS2_EEEEE4pushB7v160006ERKS2_, symObjAddr: 0x1AF0, symBinAddr: 0x100003AB0, symSize: 0x30 }
  - { offsetInCU: 0x1366F, offset: 0x2D8EC, size: 0x8, addend: 0x0, symName: __ZN4Game8updateDtEv, symObjAddr: 0x1B20, symBinAddr: 0x100003AE0, symSize: 0x200 }
  - { offsetInCU: 0x13698, offset: 0x2D915, size: 0x8, addend: 0x0, symName: __ZN4Game9add_sceneEP9GameState, symObjAddr: 0x1D20, symBinAddr: 0x100003CE0, symSize: 0x180 }
  - { offsetInCU: 0x136D4, offset: 0x2D951, size: 0x8, addend: 0x0, symName: __ZN4Game9updateGUIEv, symObjAddr: 0x1EA0, symBinAddr: 0x100003E60, symSize: 0x290 }
  - { offsetInCU: 0x13702, offset: 0x2D97F, size: 0x8, addend: 0x0, symName: __ZNSt3__112basic_stringIcNS_11char_traitsIcEENS_9allocatorIcEEEC1B7v160006IDnEEPKc, symObjAddr: 0x2130, symBinAddr: 0x1000040F0, symSize: 0x30 }
  - { offsetInCU: 0x13741, offset: 0x2D9BE, size: 0x8, addend: 0x0, symName: __ZNSt3__113basic_ostreamIcNS_11char_traitsIcEEElsB7v160006EPFRS3_S4_E, symObjAddr: 0x2160, symBinAddr: 0x100004120, symSize: 0x20 }
  - { offsetInCU: 0x13776, offset: 0x2D9F3, size: 0x8, addend: 0x0, symName: __ZNKSt3__15stackIP9GameStateNS_5dequeIS2_NS_9allocatorIS2_EEEEE4sizeB7v160006Ev, symObjAddr: 0x2230, symBinAddr: 0x1000041F0, symSize: 0x20 }
  - { offsetInCU: 0x1379C, offset: 0x2DA19, size: 0x8, addend: 0x0, symName: __ZNSt3__15stackIP9GameStateNS_5dequeIS2_NS_9allocatorIS2_EEEEED2Ev, symObjAddr: 0x2250, symBinAddr: 0x100004210, symSize: 0x20 }
  - { offsetInCU: 0x137C8, offset: 0x2DA45, size: 0x8, addend: 0x0, symName: __ZNSt3__15dequeIP9GameStateNS_9allocatorIS2_EEED1B7v160006Ev, symObjAddr: 0x2270, symBinAddr: 0x100004230, symSize: 0x20 }
  - { offsetInCU: 0x137F2, offset: 0x2DA6F, size: 0x8, addend: 0x0, symName: __ZNSt3__15dequeIP9GameStateNS_9allocatorIS2_EEED2B7v160006Ev, symObjAddr: 0x2290, symBinAddr: 0x100004250, symSize: 0xB0 }
  - { offsetInCU: 0x1384B, offset: 0x2DAC8, size: 0x8, addend: 0x0, symName: __ZNSt3__15dequeIP9GameStateNS_9allocatorIS2_EEE5clearEv, symObjAddr: 0x2340, symBinAddr: 0x100004300, symSize: 0x580 }
  - { offsetInCU: 0x138BC, offset: 0x2DB39, size: 0x8, addend: 0x0, symName: __ZNSt3__114__split_bufferIPP9GameStateNS_9allocatorIS3_EEE5beginB7v160006Ev, symObjAddr: 0x28C0, symBinAddr: 0x100004880, symSize: 0x50 }
  - { offsetInCU: 0x138E2, offset: 0x2DB5F, size: 0x8, addend: 0x0, symName: __ZNSt3__114__split_bufferIPP9GameStateNS_9allocatorIS3_EEE3endB7v160006Ev, symObjAddr: 0x2910, symBinAddr: 0x1000048D0, symSize: 0x50 }
  - { offsetInCU: 0x13908, offset: 0x2DB85, size: 0x8, addend: 0x0, symName: __ZNSt3__116allocator_traitsINS_9allocatorIP9GameStateEEE10deallocateB7v160006ERS4_PS3_m, symObjAddr: 0x2960, symBinAddr: 0x100004920, symSize: 0x30 }
  - { offsetInCU: 0x1394D, offset: 0x2DBCA, size: 0x8, addend: 0x0, symName: __ZNSt3__15dequeIP9GameStateNS_9allocatorIS2_EEE7__allocB7v160006Ev, symObjAddr: 0x2990, symBinAddr: 0x100004950, symSize: 0x20 }
  - { offsetInCU: 0x13973, offset: 0x2DBF0, size: 0x8, addend: 0x0, symName: __ZNSt3__114__split_bufferIPP9GameStateNS_9allocatorIS3_EEED1Ev, symObjAddr: 0x29B0, symBinAddr: 0x100004970, symSize: 0x20 }
  - { offsetInCU: 0x1399F, offset: 0x2DC1C, size: 0x8, addend: 0x0, symName: __ZNSt3__15dequeIP9GameStateNS_9allocatorIS2_EEE5beginB7v160006Ev, symObjAddr: 0x29D0, symBinAddr: 0x100004990, symSize: 0x300 }
  - { offsetInCU: 0x139D7, offset: 0x2DC54, size: 0x8, addend: 0x0, symName: __ZNSt3__15dequeIP9GameStateNS_9allocatorIS2_EEE3endB7v160006Ev, symObjAddr: 0x2CD0, symBinAddr: 0x100004C90, symSize: 0x290 }
  - { offsetInCU: 0x13A20, offset: 0x2DC9D, size: 0x8, addend: 0x0, symName: __ZNSt3__116allocator_traitsINS_9allocatorIP9GameStateEEE7destroyB7v160006IS3_vEEvRS4_PT_, symObjAddr: 0x2F90, symBinAddr: 0x100004F50, symSize: 0x30 }
  - { offsetInCU: 0x13A5F, offset: 0x2DCDC, size: 0x8, addend: 0x0, symName: __ZNKSt3__116__deque_iteratorIP9GameStatePS2_RS2_PS3_lLl512EEdeB7v160006Ev, symObjAddr: 0x2FC0, symBinAddr: 0x100004F80, symSize: 0x50 }
  - { offsetInCU: 0x13A85, offset: 0x2DD02, size: 0x8, addend: 0x0, symName: __ZNSt3__116__deque_iteratorIP9GameStatePS2_RS2_PS3_lLl512EEppB7v160006Ev, symObjAddr: 0x3010, symBinAddr: 0x100004FD0, symSize: 0x1B0 }
  - { offsetInCU: 0x13AAB, offset: 0x2DD28, size: 0x8, addend: 0x0, symName: __ZNSt3__15dequeIP9GameStateNS_9allocatorIS2_EEE6__sizeB7v160006Ev, symObjAddr: 0x31C0, symBinAddr: 0x100005180, symSize: 0x20 }
  - { offsetInCU: 0x13AD1, offset: 0x2DD4E, size: 0x8, addend: 0x0, symName: __ZNKSt3__114__split_bufferIPP9GameStateNS_9allocatorIS3_EEE4sizeB7v160006Ev, symObjAddr: 0x31E0, symBinAddr: 0x1000051A0, symSize: 0xA0 }
  - { offsetInCU: 0x13AF7, offset: 0x2DD74, size: 0x8, addend: 0x0, symName: __ZNSt3__114__split_bufferIPP9GameStateNS_9allocatorIS3_EEE5frontB7v160006Ev, symObjAddr: 0x3280, symBinAddr: 0x100005240, symSize: 0x50 }
  - { offsetInCU: 0x13B1D, offset: 0x2DD9A, size: 0x8, addend: 0x0, symName: __ZNSt3__114__split_bufferIPP9GameStateNS_9allocatorIS3_EEE9pop_frontB7v160006Ev, symObjAddr: 0x32D0, symBinAddr: 0x100005290, symSize: 0x60 }
  - { offsetInCU: 0x13B43, offset: 0x2DDC0, size: 0x8, addend: 0x0, symName: __ZNKSt3__114__split_bufferIPP9GameStateNS_9allocatorIS3_EEE5emptyB7v160006Ev, symObjAddr: 0x3330, symBinAddr: 0x1000052F0, symSize: 0xA0 }
  - { offsetInCU: 0x13B69, offset: 0x2DDE6, size: 0x8, addend: 0x0, symName: __ZNSt3__116__deque_iteratorIP9GameStatePS2_RS2_PS3_lLl512EEC1B7v160006ES5_S3_, symObjAddr: 0x33D0, symBinAddr: 0x100005390, symSize: 0x30 }
  - { offsetInCU: 0x13BB3, offset: 0x2DE30, size: 0x8, addend: 0x0, symName: __ZNSt3__116__deque_iteratorIP9GameStatePS2_RS2_PS3_lLl512EEC2B7v160006ES5_S3_, symObjAddr: 0x3400, symBinAddr: 0x1000053C0, symSize: 0xA0 }
  - { offsetInCU: 0x13BFD, offset: 0x2DE7A, size: 0x8, addend: 0x0, symName: __ZNKSt3__15dequeIP9GameStateNS_9allocatorIS2_EEE4sizeB7v160006Ev, symObjAddr: 0x34A0, symBinAddr: 0x100005460, symSize: 0x50 }
  - { offsetInCU: 0x13C23, offset: 0x2DEA0, size: 0x8, addend: 0x0, symName: __ZNKSt3__15dequeIP9GameStateNS_9allocatorIS2_EEE6__sizeB7v160006Ev, symObjAddr: 0x34F0, symBinAddr: 0x1000054B0, symSize: 0x20 }
  - { offsetInCU: 0x13C49, offset: 0x2DEC6, size: 0x8, addend: 0x0, symName: __ZNKSt3__117__compressed_pairImNS_9allocatorIP9GameStateEEE5firstB7v160006Ev, symObjAddr: 0x3510, symBinAddr: 0x1000054D0, symSize: 0x20 }
  - { offsetInCU: 0x13C6F, offset: 0x2DEEC, size: 0x8, addend: 0x0, symName: __ZNKSt3__122__compressed_pair_elemImLi0ELb0EE5__getB7v160006Ev, symObjAddr: 0x3530, symBinAddr: 0x1000054F0, symSize: 0x10 }
  - { offsetInCU: 0x13C95, offset: 0x2DF12, size: 0x8, addend: 0x0, symName: __ZNSt3__19allocatorIP9GameStateE7destroyB7v160006EPS2_, symObjAddr: 0x35E0, symBinAddr: 0x1000055A0, symSize: 0x10 }
  - { offsetInCU: 0x13CCA, offset: 0x2DF47, size: 0x8, addend: 0x0, symName: __ZNSt3__117__compressed_pairImNS_9allocatorIP9GameStateEEE5firstB7v160006Ev, symObjAddr: 0x35F0, symBinAddr: 0x1000055B0, symSize: 0x20 }
  - { offsetInCU: 0x13CF0, offset: 0x2DF6D, size: 0x8, addend: 0x0, symName: __ZNSt3__122__compressed_pair_elemImLi0ELb0EE5__getB7v160006Ev, symObjAddr: 0x3610, symBinAddr: 0x1000055D0, symSize: 0x10 }
  - { offsetInCU: 0x13D16, offset: 0x2DF93, size: 0x8, addend: 0x0, symName: __ZNSt3__114__split_bufferIPP9GameStateNS_9allocatorIS3_EEE19__destruct_at_beginB7v160006EPS3_, symObjAddr: 0x3620, symBinAddr: 0x1000055E0, symSize: 0x30 }
  - { offsetInCU: 0x13D4B, offset: 0x2DFC8, size: 0x8, addend: 0x0, symName: __ZNSt3__114__split_bufferIPP9GameStateNS_9allocatorIS3_EEE19__destruct_at_beginEPS3_NS_17integral_constantIbLb1EEE, symObjAddr: 0x3650, symBinAddr: 0x100005610, symSize: 0x60 }
  - { offsetInCU: 0x13D8D, offset: 0x2E00A, size: 0x8, addend: 0x0, symName: __ZNSt3__19allocatorIP9GameStateE10deallocateB7v160006EPS2_m, symObjAddr: 0x36B0, symBinAddr: 0x100005670, symSize: 0x80 }
  - { offsetInCU: 0x13DD1, offset: 0x2E04E, size: 0x8, addend: 0x0, symName: __ZNSt3__117__compressed_pairImNS_9allocatorIP9GameStateEEE6secondB7v160006Ev, symObjAddr: 0x37B0, symBinAddr: 0x100005770, symSize: 0x20 }
  - { offsetInCU: 0x13DF7, offset: 0x2E074, size: 0x8, addend: 0x0, symName: __ZNSt3__122__compressed_pair_elemINS_9allocatorIP9GameStateEELi1ELb1EE5__getB7v160006Ev, symObjAddr: 0x37D0, symBinAddr: 0x100005790, symSize: 0x10 }
  - { offsetInCU: 0x13E1D, offset: 0x2E09A, size: 0x8, addend: 0x0, symName: __ZNSt3__114__split_bufferIPP9GameStateNS_9allocatorIS3_EEED2Ev, symObjAddr: 0x37E0, symBinAddr: 0x1000057A0, symSize: 0xB0 }
  - { offsetInCU: 0x13E49, offset: 0x2E0C6, size: 0x8, addend: 0x0, symName: __ZNSt3__114__split_bufferIPP9GameStateNS_9allocatorIS3_EEE5clearB7v160006Ev, symObjAddr: 0x3890, symBinAddr: 0x100005850, symSize: 0x60 }
  - { offsetInCU: 0x13E6F, offset: 0x2E0EC, size: 0x8, addend: 0x0, symName: __ZNSt3__116allocator_traitsINS_9allocatorIPP9GameStateEEE10deallocateB7v160006ERS5_PS4_m, symObjAddr: 0x38F0, symBinAddr: 0x1000058B0, symSize: 0x30 }
  - { offsetInCU: 0x13EB4, offset: 0x2E131, size: 0x8, addend: 0x0, symName: __ZNSt3__114__split_bufferIPP9GameStateNS_9allocatorIS3_EEE7__allocB7v160006Ev, symObjAddr: 0x3920, symBinAddr: 0x1000058E0, symSize: 0x20 }
  - { offsetInCU: 0x13EDA, offset: 0x2E157, size: 0x8, addend: 0x0, symName: __ZNKSt3__114__split_bufferIPP9GameStateNS_9allocatorIS3_EEE8capacityB7v160006Ev, symObjAddr: 0x3940, symBinAddr: 0x100005900, symSize: 0x90 }
  - { offsetInCU: 0x13F00, offset: 0x2E17D, size: 0x8, addend: 0x0, symName: __ZNSt3__114__split_bufferIPP9GameStateNS_9allocatorIS3_EEE17__destruct_at_endB7v160006EPS3_, symObjAddr: 0x39D0, symBinAddr: 0x100005990, symSize: 0x30 }
  - { offsetInCU: 0x13F35, offset: 0x2E1B2, size: 0x8, addend: 0x0, symName: __ZNSt3__114__split_bufferIPP9GameStateNS_9allocatorIS3_EEE17__destruct_at_endB7v160006EPS3_NS_17integral_constantIbLb0EEE, symObjAddr: 0x3A00, symBinAddr: 0x1000059C0, symSize: 0x100 }
  - { offsetInCU: 0x13F77, offset: 0x2E1F4, size: 0x8, addend: 0x0, symName: __ZNSt3__116allocator_traitsINS_9allocatorIPP9GameStateEEE7destroyB7v160006IS4_vEEvRS5_PT_, symObjAddr: 0x3B00, symBinAddr: 0x100005AC0, symSize: 0x30 }
  - { offsetInCU: 0x13FB6, offset: 0x2E233, size: 0x8, addend: 0x0, symName: __ZNSt3__19allocatorIPP9GameStateE7destroyB7v160006EPS3_, symObjAddr: 0x3B40, symBinAddr: 0x100005B00, symSize: 0x10 }
  - { offsetInCU: 0x13FEB, offset: 0x2E268, size: 0x8, addend: 0x0, symName: __ZNSt3__19allocatorIPP9GameStateE10deallocateB7v160006EPS3_m, symObjAddr: 0x3B50, symBinAddr: 0x100005B10, symSize: 0x80 }
  - { offsetInCU: 0x1402F, offset: 0x2E2AC, size: 0x8, addend: 0x0, symName: __ZNSt3__117__compressed_pairIPPP9GameStateNS_9allocatorIS3_EEE6secondB7v160006Ev, symObjAddr: 0x3BD0, symBinAddr: 0x100005B90, symSize: 0x20 }
  - { offsetInCU: 0x14055, offset: 0x2E2D2, size: 0x8, addend: 0x0, symName: __ZNSt3__122__compressed_pair_elemINS_9allocatorIPP9GameStateEELi1ELb1EE5__getB7v160006Ev, symObjAddr: 0x3BF0, symBinAddr: 0x100005BB0, symSize: 0x10 }
  - { offsetInCU: 0x1407B, offset: 0x2E2F8, size: 0x8, addend: 0x0, symName: __ZNKSt3__114__split_bufferIPP9GameStateNS_9allocatorIS3_EEE9__end_capB7v160006Ev, symObjAddr: 0x3C00, symBinAddr: 0x100005BC0, symSize: 0x20 }
  - { offsetInCU: 0x140A1, offset: 0x2E31E, size: 0x8, addend: 0x0, symName: __ZNKSt3__117__compressed_pairIPPP9GameStateNS_9allocatorIS3_EEE5firstB7v160006Ev, symObjAddr: 0x3C20, symBinAddr: 0x100005BE0, symSize: 0x20 }
  - { offsetInCU: 0x140C7, offset: 0x2E344, size: 0x8, addend: 0x0, symName: __ZNKSt3__122__compressed_pair_elemIPPP9GameStateLi0ELb0EE5__getB7v160006Ev, symObjAddr: 0x3C40, symBinAddr: 0x100005C00, symSize: 0x10 }
  - { offsetInCU: 0x140ED, offset: 0x2E36A, size: 0x8, addend: 0x0, symName: __ZN2sf15ContextSettingsC2Ejjjjjjb, symObjAddr: 0x3C50, symBinAddr: 0x100005C10, symSize: 0x2D0 }
  - { offsetInCU: 0x14180, offset: 0x2E3FD, size: 0x8, addend: 0x0, symName: __ZN2sf6StringD2Ev, symObjAddr: 0x3F20, symBinAddr: 0x100005EE0, symSize: 0x20 }
  - { offsetInCU: 0x141AC, offset: 0x2E429, size: 0x8, addend: 0x0, symName: __ZNSt3__112basic_stringIjNS_11char_traitsIjEENS_9allocatorIjEEED1Ev, symObjAddr: 0x3F40, symBinAddr: 0x100005F00, symSize: 0x20 }
  - { offsetInCU: 0x141D8, offset: 0x2E455, size: 0x8, addend: 0x0, symName: __ZNSt3__112basic_stringIjNS_11char_traitsIjEENS_9allocatorIjEEED2Ev, symObjAddr: 0x3F60, symBinAddr: 0x100005F20, symSize: 0x70 }
  - { offsetInCU: 0x14204, offset: 0x2E481, size: 0x8, addend: 0x0, symName: __ZNKSt3__112basic_stringIjNS_11char_traitsIjEENS_9allocatorIjEEE9__is_longB7v160006Ev, symObjAddr: 0x3FE0, symBinAddr: 0x100005FA0, symSize: 0xA0 }
  - { offsetInCU: 0x1422A, offset: 0x2E4A7, size: 0x8, addend: 0x0, symName: __ZNSt3__116allocator_traitsINS_9allocatorIjEEE10deallocateB7v160006ERS2_Pjm, symObjAddr: 0x4080, symBinAddr: 0x100006040, symSize: 0x30 }
  - { offsetInCU: 0x1426F, offset: 0x2E4EC, size: 0x8, addend: 0x0, symName: __ZNSt3__112basic_stringIjNS_11char_traitsIjEENS_9allocatorIjEEE7__allocB7v160006Ev, symObjAddr: 0x40B0, symBinAddr: 0x100006070, symSize: 0x20 }
  - { offsetInCU: 0x14295, offset: 0x2E512, size: 0x8, addend: 0x0, symName: __ZNSt3__112basic_stringIjNS_11char_traitsIjEENS_9allocatorIjEEE18__get_long_pointerB7v160006Ev, symObjAddr: 0x40D0, symBinAddr: 0x100006090, symSize: 0x50 }
  - { offsetInCU: 0x142BB, offset: 0x2E538, size: 0x8, addend: 0x0, symName: __ZNKSt3__112basic_stringIjNS_11char_traitsIjEENS_9allocatorIjEEE14__get_long_capB7v160006Ev, symObjAddr: 0x4120, symBinAddr: 0x1000060E0, symSize: 0x60 }
  - { offsetInCU: 0x142E1, offset: 0x2E55E, size: 0x8, addend: 0x0, symName: __ZNKSt3__117__compressed_pairINS_12basic_stringIjNS_11char_traitsIjEENS_9allocatorIjEEE5__repES5_E5firstB7v160006Ev, symObjAddr: 0x4180, symBinAddr: 0x100006140, symSize: 0x20 }
  - { offsetInCU: 0x14307, offset: 0x2E584, size: 0x8, addend: 0x0, symName: __ZNKSt3__122__compressed_pair_elemINS_12basic_stringIjNS_11char_traitsIjEENS_9allocatorIjEEE5__repELi0ELb0EE5__getB7v160006Ev, symObjAddr: 0x41A0, symBinAddr: 0x100006160, symSize: 0x10 }
  - { offsetInCU: 0x1432D, offset: 0x2E5AA, size: 0x8, addend: 0x0, symName: __ZNSt3__19allocatorIjE10deallocateB7v160006EPjm, symObjAddr: 0x41B0, symBinAddr: 0x100006170, symSize: 0x80 }
  - { offsetInCU: 0x14371, offset: 0x2E5EE, size: 0x8, addend: 0x0, symName: __ZNSt3__117__compressed_pairINS_12basic_stringIjNS_11char_traitsIjEENS_9allocatorIjEEE5__repES5_E6secondB7v160006Ev, symObjAddr: 0x4230, symBinAddr: 0x1000061F0, symSize: 0x20 }
  - { offsetInCU: 0x14397, offset: 0x2E614, size: 0x8, addend: 0x0, symName: __ZNSt3__122__compressed_pair_elemINS_9allocatorIjEELi1ELb1EE5__getB7v160006Ev, symObjAddr: 0x4250, symBinAddr: 0x100006210, symSize: 0x10 }
  - { offsetInCU: 0x143BD, offset: 0x2E63A, size: 0x8, addend: 0x0, symName: __ZNSt3__117__compressed_pairINS_12basic_stringIjNS_11char_traitsIjEENS_9allocatorIjEEE5__repES5_E5firstB7v160006Ev, symObjAddr: 0x4260, symBinAddr: 0x100006220, symSize: 0x20 }
  - { offsetInCU: 0x143E3, offset: 0x2E660, size: 0x8, addend: 0x0, symName: __ZNSt3__122__compressed_pair_elemINS_12basic_stringIjNS_11char_traitsIjEENS_9allocatorIjEEE5__repELi0ELb0EE5__getB7v160006Ev, symObjAddr: 0x4280, symBinAddr: 0x100006240, symSize: 0x10 }
  - { offsetInCU: 0x14409, offset: 0x2E686, size: 0x8, addend: 0x0, symName: __ZNSt3__15stackIP9GameStateNS_5dequeIS2_NS_9allocatorIS2_EEEEEC2B7v160006Ev, symObjAddr: 0x4290, symBinAddr: 0x100006250, symSize: 0x20 }
  - { offsetInCU: 0x14433, offset: 0x2E6B0, size: 0x8, addend: 0x0, symName: __ZNSt3__15dequeIP9GameStateNS_9allocatorIS2_EEEC1B7v160006Ev, symObjAddr: 0x42B0, symBinAddr: 0x100006270, symSize: 0x20 }
  - { offsetInCU: 0x1445D, offset: 0x2E6DA, size: 0x8, addend: 0x0, symName: __ZNSt3__15dequeIP9GameStateNS_9allocatorIS2_EEEC2B7v160006Ev, symObjAddr: 0x42D0, symBinAddr: 0x100006290, symSize: 0x2C0 }
  - { offsetInCU: 0x14488, offset: 0x2E705, size: 0x8, addend: 0x0, symName: __ZNSt3__114__split_bufferIPP9GameStateNS_9allocatorIS3_EEEC1Ev, symObjAddr: 0x4590, symBinAddr: 0x100006550, symSize: 0x20 }
  - { offsetInCU: 0x144BE, offset: 0x2E73B, size: 0x8, addend: 0x0, symName: __ZNSt3__117__compressed_pairImNS_9allocatorIP9GameStateEEEC1B7v160006IiNS_18__default_init_tagEEEOT_OT0_, symObjAddr: 0x45B0, symBinAddr: 0x100006570, symSize: 0x30 }
  - { offsetInCU: 0x14518, offset: 0x2E795, size: 0x8, addend: 0x0, symName: __ZNSt3__114__split_bufferIPP9GameStateNS_9allocatorIS3_EEEC2Ev, symObjAddr: 0x45E0, symBinAddr: 0x1000065A0, symSize: 0x280 }
  - { offsetInCU: 0x1454A, offset: 0x2E7C7, size: 0x8, addend: 0x0, symName: __ZNSt3__117__compressed_pairIPPP9GameStateNS_9allocatorIS3_EEEC1B7v160006IDnNS_18__default_init_tagEEEOT_OT0_, symObjAddr: 0x4860, symBinAddr: 0x100006820, symSize: 0x30 }
  - { offsetInCU: 0x145A4, offset: 0x2E821, size: 0x8, addend: 0x0, symName: __ZNSt3__117__compressed_pairIPPP9GameStateNS_9allocatorIS3_EEEC2B7v160006IDnNS_18__default_init_tagEEEOT_OT0_, symObjAddr: 0x4890, symBinAddr: 0x100006850, symSize: 0x40 }
  - { offsetInCU: 0x145FE, offset: 0x2E87B, size: 0x8, addend: 0x0, symName: __ZNSt3__122__compressed_pair_elemIPPP9GameStateLi0ELb0EEC2B7v160006IDnvEEOT_, symObjAddr: 0x48D0, symBinAddr: 0x100006890, symSize: 0x50 }
  - { offsetInCU: 0x14641, offset: 0x2E8BE, size: 0x8, addend: 0x0, symName: __ZNSt3__122__compressed_pair_elemINS_9allocatorIPP9GameStateEELi1ELb1EEC2B7v160006ENS_18__default_init_tagE, symObjAddr: 0x4920, symBinAddr: 0x1000068E0, symSize: 0x20 }
  - { offsetInCU: 0x14676, offset: 0x2E8F3, size: 0x8, addend: 0x0, symName: __ZNSt3__19allocatorIPP9GameStateEC2B7v160006Ev, symObjAddr: 0x4940, symBinAddr: 0x100006900, symSize: 0x20 }
  - { offsetInCU: 0x146A0, offset: 0x2E91D, size: 0x8, addend: 0x0, symName: __ZNSt3__116__non_trivial_ifILb1ENS_9allocatorIPP9GameStateEEEC2B7v160006Ev, symObjAddr: 0x4960, symBinAddr: 0x100006920, symSize: 0x10 }
  - { offsetInCU: 0x146CA, offset: 0x2E947, size: 0x8, addend: 0x0, symName: __ZNSt3__117__compressed_pairImNS_9allocatorIP9GameStateEEEC2B7v160006IiNS_18__default_init_tagEEEOT_OT0_, symObjAddr: 0x4970, symBinAddr: 0x100006930, symSize: 0x40 }
  - { offsetInCU: 0x14724, offset: 0x2E9A1, size: 0x8, addend: 0x0, symName: __ZNSt3__122__compressed_pair_elemImLi0ELb0EEC2B7v160006IivEEOT_, symObjAddr: 0x49B0, symBinAddr: 0x100006970, symSize: 0xB0 }
  - { offsetInCU: 0x14767, offset: 0x2E9E4, size: 0x8, addend: 0x0, symName: __ZNSt3__122__compressed_pair_elemINS_9allocatorIP9GameStateEELi1ELb1EEC2B7v160006ENS_18__default_init_tagE, symObjAddr: 0x4A60, symBinAddr: 0x100006A20, symSize: 0x20 }
  - { offsetInCU: 0x1479C, offset: 0x2EA19, size: 0x8, addend: 0x0, symName: __ZNSt3__19allocatorIP9GameStateEC2B7v160006Ev, symObjAddr: 0x4A80, symBinAddr: 0x100006A40, symSize: 0x20 }
  - { offsetInCU: 0x147C6, offset: 0x2EA43, size: 0x8, addend: 0x0, symName: __ZNSt3__116__non_trivial_ifILb1ENS_9allocatorIP9GameStateEEEC2B7v160006Ev, symObjAddr: 0x4AA0, symBinAddr: 0x100006A60, symSize: 0x10 }
  - { offsetInCU: 0x147F0, offset: 0x2EA6D, size: 0x8, addend: 0x0, symName: __ZNKSt3__15dequeIP9GameStateNS_9allocatorIS2_EEE5emptyB7v160006Ev, symObjAddr: 0x4AB0, symBinAddr: 0x100006A70, symSize: 0x30 }
  - { offsetInCU: 0x14816, offset: 0x2EA93, size: 0x8, addend: 0x0, symName: __ZNSt3__15dequeIP9GameStateNS_9allocatorIS2_EEE4backEv, symObjAddr: 0x4AE0, symBinAddr: 0x100006AA0, symSize: 0xD0 }
  - { offsetInCU: 0x1484E, offset: 0x2EACB, size: 0x8, addend: 0x0, symName: __ZNSt3__15dequeIP9GameStateNS_9allocatorIS2_EEE8pop_backEv, symObjAddr: 0x4BB0, symBinAddr: 0x100006B70, symSize: 0x140 }
  - { offsetInCU: 0x14896, offset: 0x2EB13, size: 0x8, addend: 0x0, symName: __ZNSt3__15dequeIP9GameStateNS_9allocatorIS2_EEE25__maybe_remove_back_spareB7v160006Eb, symObjAddr: 0x4D00, symBinAddr: 0x100006CC0, symSize: 0xC0 }
  - { offsetInCU: 0x148CC, offset: 0x2EB49, size: 0x8, addend: 0x0, symName: __ZNKSt3__15dequeIP9GameStateNS_9allocatorIS2_EEE19__back_spare_blocksB7v160006Ev, symObjAddr: 0x4DC0, symBinAddr: 0x100006D80, symSize: 0x20 }
  - { offsetInCU: 0x148F2, offset: 0x2EB6F, size: 0x8, addend: 0x0, symName: __ZNSt3__114__split_bufferIPP9GameStateNS_9allocatorIS3_EEE4backB7v160006Ev, symObjAddr: 0x4DE0, symBinAddr: 0x100006DA0, symSize: 0x50 }
  - { offsetInCU: 0x14918, offset: 0x2EB95, size: 0x8, addend: 0x0, symName: __ZNSt3__114__split_bufferIPP9GameStateNS_9allocatorIS3_EEE8pop_backB7v160006Ev, symObjAddr: 0x4E30, symBinAddr: 0x100006DF0, symSize: 0x60 }
  - { offsetInCU: 0x1493E, offset: 0x2EBBB, size: 0x8, addend: 0x0, symName: __ZNKSt3__15dequeIP9GameStateNS_9allocatorIS2_EEE12__back_spareB7v160006Ev, symObjAddr: 0x4E90, symBinAddr: 0x100006E50, symSize: 0x80 }
  - { offsetInCU: 0x14964, offset: 0x2EBE1, size: 0x8, addend: 0x0, symName: __ZNKSt3__15dequeIP9GameStateNS_9allocatorIS2_EEE10__capacityB7v160006Ev, symObjAddr: 0x4F10, symBinAddr: 0x100006ED0, symSize: 0x50 }
  - { offsetInCU: 0x1498A, offset: 0x2EC07, size: 0x8, addend: 0x0, symName: __ZNSt3__111char_traitsIcE6lengthEPKc, symObjAddr: 0x56C0, symBinAddr: 0x100007680, symSize: 0x50 }
  - { offsetInCU: 0x149CC, offset: 0x2EC49, size: 0x8, addend: 0x0, symName: __ZNKSt3__113basic_ostreamIcNS_11char_traitsIcEEE6sentrycvbB7v160006Ev, symObjAddr: 0x5710, symBinAddr: 0x1000076D0, symSize: 0x70 }
  - { offsetInCU: 0x149F2, offset: 0x2EC6F, size: 0x8, addend: 0x0, symName: __ZNSt3__119ostreambuf_iteratorIcNS_11char_traitsIcEEEC1B7v160006ERNS_13basic_ostreamIcS2_EE, symObjAddr: 0x5E70, symBinAddr: 0x100007E30, symSize: 0x30 }
  - { offsetInCU: 0x14A2B, offset: 0x2ECA8, size: 0x8, addend: 0x0, symName: __ZNKSt3__18ios_base5flagsB7v160006Ev, symObjAddr: 0x5EA0, symBinAddr: 0x100007E60, symSize: 0x70 }
  - { offsetInCU: 0x14A53, offset: 0x2ECD0, size: 0x8, addend: 0x0, symName: __ZNKSt3__19basic_iosIcNS_11char_traitsIcEEE4fillB7v160006Ev, symObjAddr: 0x5F10, symBinAddr: 0x100007ED0, symSize: 0x160 }
  - { offsetInCU: 0x14A7B, offset: 0x2ECF8, size: 0x8, addend: 0x0, symName: __ZNKSt3__119ostreambuf_iteratorIcNS_11char_traitsIcEEE6failedB7v160006Ev, symObjAddr: 0x6070, symBinAddr: 0x100008030, symSize: 0x50 }
  - { offsetInCU: 0x14AA1, offset: 0x2ED1E, size: 0x8, addend: 0x0, symName: __ZNSt3__19basic_iosIcNS_11char_traitsIcEEE8setstateB7v160006Ej, symObjAddr: 0x60C0, symBinAddr: 0x100008080, symSize: 0x30 }
  - { offsetInCU: 0x14AD7, offset: 0x2ED54, size: 0x8, addend: 0x0, symName: __ZNKSt3__18ios_base5widthB7v160006Ev, symObjAddr: 0x60F0, symBinAddr: 0x1000080B0, symSize: 0x50 }
  - { offsetInCU: 0x14AFF, offset: 0x2ED7C, size: 0x8, addend: 0x0, symName: __ZNSt3__115basic_streambufIcNS_11char_traitsIcEEE5sputnB7v160006EPKcl, symObjAddr: 0x6140, symBinAddr: 0x100008100, symSize: 0xA0 }
  - { offsetInCU: 0x14B43, offset: 0x2EDC0, size: 0x8, addend: 0x0, symName: __ZNSt3__112basic_stringIcNS_11char_traitsIcEENS_9allocatorIcEEEC1B7v160006Emc, symObjAddr: 0x61E0, symBinAddr: 0x1000081A0, symSize: 0x30 }
  - { offsetInCU: 0x14B8D, offset: 0x2EE0A, size: 0x8, addend: 0x0, symName: __ZNKSt3__112basic_stringIcNS_11char_traitsIcEENS_9allocatorIcEEE4dataB7v160006Ev, symObjAddr: 0x6210, symBinAddr: 0x1000081D0, symSize: 0x30 }
  - { offsetInCU: 0x14BB3, offset: 0x2EE30, size: 0x8, addend: 0x0, symName: __ZNSt3__18ios_base5widthB7v160006El, symObjAddr: 0x6240, symBinAddr: 0x100008200, symSize: 0xA0 }
  - { offsetInCU: 0x14BFB, offset: 0x2EE78, size: 0x8, addend: 0x0, symName: __ZNSt3__112basic_stringIcNS_11char_traitsIcEENS_9allocatorIcEEEC2B7v160006Emc, symObjAddr: 0x62E0, symBinAddr: 0x1000082A0, symSize: 0x180 }
  - { offsetInCU: 0x14C48, offset: 0x2EEC5, size: 0x8, addend: 0x0, symName: __ZNSt3__117__compressed_pairINS_12basic_stringIcNS_11char_traitsIcEENS_9allocatorIcEEE5__repES5_EC1B7v160006INS_18__default_init_tagESA_EEOT_OT0_, symObjAddr: 0x6460, symBinAddr: 0x100008420, symSize: 0x30 }
  - { offsetInCU: 0x14CA2, offset: 0x2EF1F, size: 0x8, addend: 0x0, symName: __ZNSt3__117__compressed_pairINS_12basic_stringIcNS_11char_traitsIcEENS_9allocatorIcEEE5__repES5_EC2B7v160006INS_18__default_init_tagESA_EEOT_OT0_, symObjAddr: 0x64A0, symBinAddr: 0x100008460, symSize: 0x30 }
  - { offsetInCU: 0x14CFC, offset: 0x2EF79, size: 0x8, addend: 0x0, symName: __ZNSt3__122__compressed_pair_elemINS_12basic_stringIcNS_11char_traitsIcEENS_9allocatorIcEEE5__repELi0ELb0EEC2B7v160006ENS_18__default_init_tagE, symObjAddr: 0x64D0, symBinAddr: 0x100008490, symSize: 0x10 }
  - { offsetInCU: 0x14D31, offset: 0x2EFAE, size: 0x8, addend: 0x0, symName: __ZNSt3__122__compressed_pair_elemINS_9allocatorIcEELi1ELb1EEC2B7v160006ENS_18__default_init_tagE, symObjAddr: 0x64E0, symBinAddr: 0x1000084A0, symSize: 0x20 }
  - { offsetInCU: 0x14D66, offset: 0x2EFE3, size: 0x8, addend: 0x0, symName: __ZNSt3__19allocatorIcEC2B7v160006Ev, symObjAddr: 0x6500, symBinAddr: 0x1000084C0, symSize: 0x20 }
  - { offsetInCU: 0x14D90, offset: 0x2F00D, size: 0x8, addend: 0x0, symName: __ZNSt3__116__non_trivial_ifILb1ENS_9allocatorIcEEEC2B7v160006Ev, symObjAddr: 0x6520, symBinAddr: 0x1000084E0, symSize: 0x10 }
  - { offsetInCU: 0x14DBA, offset: 0x2F037, size: 0x8, addend: 0x0, symName: __ZNKSt3__112basic_stringIcNS_11char_traitsIcEENS_9allocatorIcEEE13__get_pointerB7v160006Ev, symObjAddr: 0x6540, symBinAddr: 0x100008500, symSize: 0x50 }
  - { offsetInCU: 0x14DE0, offset: 0x2F05D, size: 0x8, addend: 0x0, symName: __ZNKSt3__112basic_stringIcNS_11char_traitsIcEENS_9allocatorIcEEE9__is_longB7v160006Ev, symObjAddr: 0x6590, symBinAddr: 0x100008550, symSize: 0xA0 }
  - { offsetInCU: 0x14E06, offset: 0x2F083, size: 0x8, addend: 0x0, symName: __ZNKSt3__112basic_stringIcNS_11char_traitsIcEENS_9allocatorIcEEE18__get_long_pointerB7v160006Ev, symObjAddr: 0x6630, symBinAddr: 0x1000085F0, symSize: 0x50 }
  - { offsetInCU: 0x14E2C, offset: 0x2F0A9, size: 0x8, addend: 0x0, symName: __ZNKSt3__112basic_stringIcNS_11char_traitsIcEENS_9allocatorIcEEE19__get_short_pointerB7v160006Ev, symObjAddr: 0x6680, symBinAddr: 0x100008640, symSize: 0x30 }
  - { offsetInCU: 0x14E52, offset: 0x2F0CF, size: 0x8, addend: 0x0, symName: __ZNKSt3__117__compressed_pairINS_12basic_stringIcNS_11char_traitsIcEENS_9allocatorIcEEE5__repES5_E5firstB7v160006Ev, symObjAddr: 0x66B0, symBinAddr: 0x100008670, symSize: 0x20 }
  - { offsetInCU: 0x14E78, offset: 0x2F0F5, size: 0x8, addend: 0x0, symName: __ZNKSt3__122__compressed_pair_elemINS_12basic_stringIcNS_11char_traitsIcEENS_9allocatorIcEEE5__repELi0ELb0EE5__getB7v160006Ev, symObjAddr: 0x66D0, symBinAddr: 0x100008690, symSize: 0x10 }
  - { offsetInCU: 0x14E9E, offset: 0x2F11B, size: 0x8, addend: 0x0, symName: __ZNSt3__114pointer_traitsIPKcE10pointer_toB7v160006ERS1_, symObjAddr: 0x66E0, symBinAddr: 0x1000086A0, symSize: 0x10 }
  - { offsetInCU: 0x14EC2, offset: 0x2F13F, size: 0x8, addend: 0x0, symName: __ZNSt3__119ostreambuf_iteratorIcNS_11char_traitsIcEEEC2B7v160006ERNS_13basic_ostreamIcS2_EE, symObjAddr: 0x66F0, symBinAddr: 0x1000086B0, symSize: 0x100 }
  - { offsetInCU: 0x14EFB, offset: 0x2F178, size: 0x8, addend: 0x0, symName: __ZNKSt3__19basic_iosIcNS_11char_traitsIcEEE5rdbufB7v160006Ev, symObjAddr: 0x67F0, symBinAddr: 0x1000087B0, symSize: 0x20 }
  - { offsetInCU: 0x14F23, offset: 0x2F1A0, size: 0x8, addend: 0x0, symName: __ZNKSt3__18ios_base5rdbufB7v160006Ev, symObjAddr: 0x6810, symBinAddr: 0x1000087D0, symSize: 0x50 }
  - { offsetInCU: 0x14F49, offset: 0x2F1C6, size: 0x8, addend: 0x0, symName: __ZNSt3__111char_traitsIcE11eq_int_typeEii, symObjAddr: 0x6860, symBinAddr: 0x100008820, symSize: 0x20 }
  - { offsetInCU: 0x14F7C, offset: 0x2F1F9, size: 0x8, addend: 0x0, symName: __ZNSt3__111char_traitsIcE3eofEv, symObjAddr: 0x6880, symBinAddr: 0x100008840, symSize: 0x10 }
  - { offsetInCU: 0x14F90, offset: 0x2F20D, size: 0x8, addend: 0x0, symName: __ZNKSt3__19basic_iosIcNS_11char_traitsIcEEE5widenB7v160006Ec, symObjAddr: 0x6890, symBinAddr: 0x100008850, symSize: 0x220 }
  - { offsetInCU: 0x14FFC, offset: 0x2F279, size: 0x8, addend: 0x0, symName: __ZNKSt3__15ctypeIcE5widenB7v160006Ec, symObjAddr: 0x6AE0, symBinAddr: 0x100008AA0, symSize: 0xA0 }
  - { offsetInCU: 0x15032, offset: 0x2F2AF, size: 0x8, addend: 0x0, symName: __ZNSt3__18ios_base8setstateB7v160006Ej, symObjAddr: 0x6B80, symBinAddr: 0x100008B40, symSize: 0x80 }
  - { offsetInCU: 0x1506A, offset: 0x2F2E7, size: 0x8, addend: 0x0, symName: __ZNSt3__15dequeIP9GameStateNS_9allocatorIS2_EEE9push_backERKS2_, symObjAddr: 0x6C20, symBinAddr: 0x100008BE0, symSize: 0x260 }
  - { offsetInCU: 0x150B5, offset: 0x2F332, size: 0x8, addend: 0x0, symName: __ZNSt3__15dequeIP9GameStateNS_9allocatorIS2_EEE19__add_back_capacityEv, symObjAddr: 0x6E80, symBinAddr: 0x100008E40, symSize: 0xA60 }
  - { offsetInCU: 0x15177, offset: 0x2F3F4, size: 0x8, addend: 0x0, symName: __ZNSt3__116allocator_traitsINS_9allocatorIP9GameStateEEE9constructB7v160006IS3_JRKS3_EvEEvRS4_PT_DpOT0_, symObjAddr: 0x78E0, symBinAddr: 0x1000098A0, symSize: 0x30 }
  - { offsetInCU: 0x151D1, offset: 0x2F44E, size: 0x8, addend: 0x0, symName: __ZNKSt3__15dequeIP9GameStateNS_9allocatorIS2_EEE13__front_spareB7v160006Ev, symObjAddr: 0x7910, symBinAddr: 0x1000098D0, symSize: 0x50 }
  - { offsetInCU: 0x151F7, offset: 0x2F474, size: 0x8, addend: 0x0, symName: __ZNSt3__114__split_bufferIPP9GameStateNS_9allocatorIS3_EEE9push_backB7v160006ERKS3_, symObjAddr: 0x7960, symBinAddr: 0x100009920, symSize: 0xB10 }
  - { offsetInCU: 0x1527C, offset: 0x2F4F9, size: 0x8, addend: 0x0, symName: __ZNKSt3__114__split_bufferIPP9GameStateNS_9allocatorIS3_EEE12__back_spareB7v160006Ev, symObjAddr: 0x8470, symBinAddr: 0x10000A430, symSize: 0xA0 }
  - { offsetInCU: 0x152A2, offset: 0x2F51F, size: 0x8, addend: 0x0, symName: __ZNSt3__114__split_bufferIPP9GameStateNS_9allocatorIS3_EEE9push_backEOS3_, symObjAddr: 0x8510, symBinAddr: 0x10000A4D0, symSize: 0xB10 }
  - { offsetInCU: 0x15327, offset: 0x2F5A4, size: 0x8, addend: 0x0, symName: __ZNSt3__116allocator_traitsINS_9allocatorIP9GameStateEEE8allocateB7v160006ERS4_m, symObjAddr: 0x9020, symBinAddr: 0x10000AFE0, symSize: 0x30 }
  - { offsetInCU: 0x1535C, offset: 0x2F5D9, size: 0x8, addend: 0x0, symName: __ZNSt3__114__split_bufferIPP9GameStateNS_9allocatorIS3_EEE10push_frontEOS3_, symObjAddr: 0x9050, symBinAddr: 0x10000B010, symSize: 0xB10 }
  - { offsetInCU: 0x153E1, offset: 0x2F65E, size: 0x8, addend: 0x0, symName: __ZNSt3__114__split_bufferIPP9GameStateRNS_9allocatorIS3_EEEC1EmmS6_, symObjAddr: 0x9B90, symBinAddr: 0x10000BB50, symSize: 0x40 }
  - { offsetInCU: 0x1543F, offset: 0x2F6BC, size: 0x8, addend: 0x0, symName: __ZNSt3__122__allocator_destructorINS_9allocatorIP9GameStateEEEC1B7v160006ERS4_m, symObjAddr: 0x9BD0, symBinAddr: 0x10000BB90, symSize: 0x30 }
  - { offsetInCU: 0x15509, offset: 0x2F786, size: 0x8, addend: 0x0, symName: __ZNSt3__110unique_ptrIPP9GameStateNS_22__allocator_destructorINS_9allocatorIS2_EEEEEC1B7v160006ILb1EvEES3_NS_16__dependent_typeINS_27__unique_ptr_deleter_sfinaeIS7_EEXT_EE20__good_rval_ref_typeE, symObjAddr: 0x9C00, symBinAddr: 0x10000BBC0, symSize: 0x30 }
  - { offsetInCU: 0x1555C, offset: 0x2F7D9, size: 0x8, addend: 0x0, symName: __ZNSt3__114__split_bufferIPP9GameStateRNS_9allocatorIS3_EEE9push_backEOS3_, symObjAddr: 0x9C30, symBinAddr: 0x10000BBF0, symSize: 0xB10 }
  - { offsetInCU: 0x155E1, offset: 0x2F85E, size: 0x8, addend: 0x0, symName: __ZNKSt3__110unique_ptrIPP9GameStateNS_22__allocator_destructorINS_9allocatorIS2_EEEEE3getB7v160006Ev, symObjAddr: 0xA740, symBinAddr: 0x10000C700, symSize: 0x50 }
  - { offsetInCU: 0x15607, offset: 0x2F884, size: 0x8, addend: 0x0, symName: __ZNSt3__110unique_ptrIPP9GameStateNS_22__allocator_destructorINS_9allocatorIS2_EEEEE7releaseB7v160006Ev, symObjAddr: 0xA790, symBinAddr: 0x10000C750, symSize: 0xA0 }
  - { offsetInCU: 0x1563D, offset: 0x2F8BA, size: 0x8, addend: 0x0, symName: __ZNSt3__114__split_bufferIPP9GameStateRNS_9allocatorIS3_EEE10push_frontERKS3_, symObjAddr: 0xA830, symBinAddr: 0x10000C7F0, symSize: 0xB10 }
  - { offsetInCU: 0x156C2, offset: 0x2F93F, size: 0x8, addend: 0x0, symName: __ZNSt3__114__split_bufferIPP9GameStateNS_9allocatorIS3_EEE9__end_capB7v160006Ev, symObjAddr: 0xB440, symBinAddr: 0x10000D400, symSize: 0x20 }
  - { offsetInCU: 0x156E8, offset: 0x2F965, size: 0x8, addend: 0x0, symName: __ZNSt3__114__split_bufferIPP9GameStateRNS_9allocatorIS3_EEE9__end_capB7v160006Ev, symObjAddr: 0xB460, symBinAddr: 0x10000D420, symSize: 0x20 }
  - { offsetInCU: 0x1570E, offset: 0x2F98B, size: 0x8, addend: 0x0, symName: __ZNSt3__110unique_ptrIPP9GameStateNS_22__allocator_destructorINS_9allocatorIS2_EEEEED1B7v160006Ev, symObjAddr: 0xB480, symBinAddr: 0x10000D440, symSize: 0x20 }
  - { offsetInCU: 0x15738, offset: 0x2F9B5, size: 0x8, addend: 0x0, symName: __ZNSt3__114__split_bufferIPP9GameStateRNS_9allocatorIS3_EEED1Ev, symObjAddr: 0xB4A0, symBinAddr: 0x10000D460, symSize: 0x20 }
  - { offsetInCU: 0x15764, offset: 0x2F9E1, size: 0x8, addend: 0x0, symName: __ZNSt3__114__split_bufferIPP9GameStateRNS_9allocatorIS3_EEE18__construct_at_endINS_13move_iteratorIPS3_EEEENS_9enable_ifIXsr27__is_cpp17_forward_iteratorIT_EE5valueEvE4typeESD_SD_, symObjAddr: 0xB6D0, symBinAddr: 0x10000D690, symSize: 0x5A0 }
  - { offsetInCU: 0x157D0, offset: 0x2FA4D, size: 0x8, addend: 0x0, symName: __ZNSt3__113move_iteratorIPPP9GameStateEC1B7v160006ES4_, symObjAddr: 0xBC70, symBinAddr: 0x10000DC30, symSize: 0x30 }
  - { offsetInCU: 0x15809, offset: 0x2FA86, size: 0x8, addend: 0x0, symName: __ZNSt3__116allocator_traitsINS_9allocatorIPP9GameStateEEE9constructB7v160006IS4_JRKS4_EvEEvRS5_PT_DpOT0_, symObjAddr: 0xBCA0, symBinAddr: 0x10000DC60, symSize: 0x30 }
  - { offsetInCU: 0x15886, offset: 0x2FB03, size: 0x8, addend: 0x0, symName: __ZNKSt3__114__move_trivialclB7v160006IPP9GameStateS4_Li0EEENS_4pairIPT_PT0_EES7_S7_S9_, symObjAddr: 0xCA60, symBinAddr: 0x10000EA20, symSize: 0x210 }
  - { offsetInCU: 0x158F6, offset: 0x2FB73, size: 0x8, addend: 0x0, symName: __ZNSt3__14pairIPPP9GameStateS4_EC1B7v160006ERKS4_S7_, symObjAddr: 0xD390, symBinAddr: 0x10000F350, symSize: 0x30 }
  - { offsetInCU: 0x1593E, offset: 0x2FBBB, size: 0x8, addend: 0x0, symName: __ZNSt3__14pairIPPP9GameStateS4_EC2B7v160006ERKS4_S7_, symObjAddr: 0xD3C0, symBinAddr: 0x10000F380, symSize: 0x110 }
  - { offsetInCU: 0x15986, offset: 0x2FC03, size: 0x8, addend: 0x0, symName: __ZNSt3__118__unwrap_iter_implIPPP9GameStateLb1EE8__unwrapB7v160006ES4_, symObjAddr: 0xD4D0, symBinAddr: 0x10000F490, symSize: 0x20 }
  - { offsetInCU: 0x159AA, offset: 0x2FC27, size: 0x8, addend: 0x0, symName: __ZNSt3__118__unwrap_iter_implIPPP9GameStateLb1EE8__rewrapB7v160006ES4_S4_, symObjAddr: 0xD4F0, symBinAddr: 0x10000F4B0, symSize: 0x50 }
  - { offsetInCU: 0x159E7, offset: 0x2FC64, size: 0x8, addend: 0x0, symName: __ZNSt3__114__split_bufferIPP9GameStateRNS_9allocatorIS3_EEE21_ConstructTransactionC1B7v160006EPPS3_m, symObjAddr: 0xD800, symBinAddr: 0x10000F7C0, symSize: 0x30 }
  - { offsetInCU: 0x15A2F, offset: 0x2FCAC, size: 0x8, addend: 0x0, symName: __ZNSt3__116allocator_traitsINS_9allocatorIPP9GameStateEEE9constructB7v160006IS4_JS4_EvEEvRS5_PT_DpOT0_, symObjAddr: 0xD830, symBinAddr: 0x10000F7F0, symSize: 0x30 }
  - { offsetInCU: 0x15A89, offset: 0x2FD06, size: 0x8, addend: 0x0, symName: __ZNSt3__114__split_bufferIPP9GameStateRNS_9allocatorIS3_EEE7__allocB7v160006Ev, symObjAddr: 0xD860, symBinAddr: 0x10000F820, symSize: 0x20 }
  - { offsetInCU: 0x15AAF, offset: 0x2FD2C, size: 0x8, addend: 0x0, symName: __ZNKSt3__113move_iteratorIPPP9GameStateEdeB7v160006Ev, symObjAddr: 0xD880, symBinAddr: 0x10000F840, symSize: 0x50 }
  - { offsetInCU: 0x15AD5, offset: 0x2FD52, size: 0x8, addend: 0x0, symName: __ZNSt3__113move_iteratorIPPP9GameStateEppB7v160006Ev, symObjAddr: 0xD8D0, symBinAddr: 0x10000F890, symSize: 0x50 }
  - { offsetInCU: 0x15AFB, offset: 0x2FD78, size: 0x8, addend: 0x0, symName: __ZNSt3__114__split_bufferIPP9GameStateRNS_9allocatorIS3_EEE21_ConstructTransactionD1B7v160006Ev, symObjAddr: 0xD920, symBinAddr: 0x10000F8E0, symSize: 0x20 }
  - { offsetInCU: 0x15B25, offset: 0x2FDA2, size: 0x8, addend: 0x0, symName: __ZNKSt3__113move_iteratorIPPP9GameStateE4baseB7v160006Ev, symObjAddr: 0xDB60, symBinAddr: 0x10000FB20, symSize: 0x50 }
  - { offsetInCU: 0x15B4B, offset: 0x2FDC8, size: 0x8, addend: 0x0, symName: __ZNSt3__114__split_bufferIPP9GameStateRNS_9allocatorIS3_EEE21_ConstructTransactionC2B7v160006EPPS3_m, symObjAddr: 0xDBB0, symBinAddr: 0x10000FB70, symSize: 0x160 }
  - { offsetInCU: 0x15B93, offset: 0x2FE10, size: 0x8, addend: 0x0, symName: __ZNSt3__19allocatorIPP9GameStateE9constructB7v160006IS3_JS3_EEEvPT_DpOT0_, symObjAddr: 0xDD10, symBinAddr: 0x10000FCD0, symSize: 0x90 }
  - { offsetInCU: 0x15BEB, offset: 0x2FE68, size: 0x8, addend: 0x0, symName: __ZNSt3__117__compressed_pairIPPP9GameStateRNS_9allocatorIS3_EEE6secondB7v160006Ev, symObjAddr: 0xDDA0, symBinAddr: 0x10000FD60, symSize: 0x20 }
  - { offsetInCU: 0x15C11, offset: 0x2FE8E, size: 0x8, addend: 0x0, symName: __ZNSt3__122__compressed_pair_elemIRNS_9allocatorIPP9GameStateEELi1ELb0EE5__getB7v160006Ev, symObjAddr: 0xDDC0, symBinAddr: 0x10000FD80, symSize: 0x50 }
  - { offsetInCU: 0x15C37, offset: 0x2FEB4, size: 0x8, addend: 0x0, symName: __ZNSt3__114__split_bufferIPP9GameStateRNS_9allocatorIS3_EEE21_ConstructTransactionD2B7v160006Ev, symObjAddr: 0xDE10, symBinAddr: 0x10000FDD0, symSize: 0xC0 }
  - { offsetInCU: 0x15C61, offset: 0x2FEDE, size: 0x8, addend: 0x0, symName: __ZNSt3__113move_iteratorIPPP9GameStateEC2B7v160006ES4_, symObjAddr: 0xDED0, symBinAddr: 0x10000FE90, symSize: 0x60 }
  - { offsetInCU: 0x15C9A, offset: 0x2FF17, size: 0x8, addend: 0x0, symName: __ZNSt3__19allocatorIPP9GameStateE9constructB7v160006IS3_JRKS3_EEEvPT_DpOT0_, symObjAddr: 0xDF30, symBinAddr: 0x10000FEF0, symSize: 0x90 }
  - { offsetInCU: 0x15CF2, offset: 0x2FF6F, size: 0x8, addend: 0x0, symName: __ZNSt3__19allocatorIP9GameStateE8allocateB7v160006Em, symObjAddr: 0xDFC0, symBinAddr: 0x10000FF80, symSize: 0x90 }
  - { offsetInCU: 0x15D31, offset: 0x2FFAE, size: 0x8, addend: 0x0, symName: __ZNSt3__116allocator_traitsINS_9allocatorIP9GameStateEEE8max_sizeB7v160006IS4_vEEmRKS4_, symObjAddr: 0xE050, symBinAddr: 0x100010010, symSize: 0x20 }
  - { offsetInCU: 0x15D60, offset: 0x2FFDD, size: 0x8, addend: 0x0, symName: __ZNKSt3__19allocatorIP9GameStateE8max_sizeB7v160006Ev, symObjAddr: 0xE0D0, symBinAddr: 0x100010090, symSize: 0x20 }
  - { offsetInCU: 0x15D90, offset: 0x3000D, size: 0x8, addend: 0x0, symName: __ZNKSt3__123__move_backward_trivialclB7v160006IPP9GameStateS4_Li0EEENS_4pairIPT_PT0_EES7_S7_S9_, symObjAddr: 0xEDB0, symBinAddr: 0x100010D70, symSize: 0x210 }
  - { offsetInCU: 0x15E0A, offset: 0x30087, size: 0x8, addend: 0x0, symName: __ZNKSt3__16__lessImmEclB7v160006ERKmS3_, symObjAddr: 0xF630, symBinAddr: 0x1000115F0, symSize: 0xA0 }
  - { offsetInCU: 0x15E4E, offset: 0x300CB, size: 0x8, addend: 0x0, symName: __ZNSt3__114__split_bufferIPP9GameStateRNS_9allocatorIS3_EEEC2EmmS6_, symObjAddr: 0xF6D0, symBinAddr: 0x100011690, symSize: 0x4C0 }
  - { offsetInCU: 0x15ECE, offset: 0x3014B, size: 0x8, addend: 0x0, symName: __ZNSt3__117__compressed_pairIPPP9GameStateRNS_9allocatorIS3_EEEC1B7v160006IDnS7_EEOT_OT0_, symObjAddr: 0xFB90, symBinAddr: 0x100011B50, symSize: 0x30 }
  - { offsetInCU: 0x15F28, offset: 0x301A5, size: 0x8, addend: 0x0, symName: __ZNSt3__117__compressed_pairIPPP9GameStateRNS_9allocatorIS3_EEEC2B7v160006IDnS7_EEOT_OT0_, symObjAddr: 0xFDD0, symBinAddr: 0x100011D90, symSize: 0x40 }
  - { offsetInCU: 0x15F82, offset: 0x301FF, size: 0x8, addend: 0x0, symName: __ZNSt3__122__compressed_pair_elemIRNS_9allocatorIPP9GameStateEELi1ELb0EEC2B7v160006IS6_vEEOT_, symObjAddr: 0xFE10, symBinAddr: 0x100011DD0, symSize: 0x60 }
  - { offsetInCU: 0x15FC5, offset: 0x30242, size: 0x8, addend: 0x0, symName: __ZNSt3__19allocatorIPP9GameStateE8allocateB7v160006Em, symObjAddr: 0xFE70, symBinAddr: 0x100011E30, symSize: 0x90 }
  - { offsetInCU: 0x16004, offset: 0x30281, size: 0x8, addend: 0x0, symName: __ZNSt3__116allocator_traitsINS_9allocatorIPP9GameStateEEE8max_sizeB7v160006IS5_vEEmRKS5_, symObjAddr: 0xFF00, symBinAddr: 0x100011EC0, symSize: 0x20 }
  - { offsetInCU: 0x16033, offset: 0x302B0, size: 0x8, addend: 0x0, symName: __ZNKSt3__19allocatorIPP9GameStateE8max_sizeB7v160006Ev, symObjAddr: 0xFF20, symBinAddr: 0x100011EE0, symSize: 0x20 }
  - { offsetInCU: 0x16059, offset: 0x302D6, size: 0x8, addend: 0x0, symName: __ZNSt3__122__allocator_destructorINS_9allocatorIP9GameStateEEEC2B7v160006ERS4_m, symObjAddr: 0xFF40, symBinAddr: 0x100011F00, symSize: 0xA0 }
  - { offsetInCU: 0x160A1, offset: 0x3031E, size: 0x8, addend: 0x0, symName: __ZNSt3__110unique_ptrIPP9GameStateNS_22__allocator_destructorINS_9allocatorIS2_EEEEEC2B7v160006ILb1EvEES3_NS_16__dependent_typeINS_27__unique_ptr_deleter_sfinaeIS7_EEXT_EE20__good_rval_ref_typeE, symObjAddr: 0xFFE0, symBinAddr: 0x100011FA0, symSize: 0x1B0 }
  - { offsetInCU: 0x160FA, offset: 0x30377, size: 0x8, addend: 0x0, symName: __ZNSt3__117__compressed_pairIPP9GameStateNS_22__allocator_destructorINS_9allocatorIS2_EEEEEC1B7v160006IRS3_S7_EEOT_OT0_, symObjAddr: 0x10190, symBinAddr: 0x100012150, symSize: 0x30 }
  - { offsetInCU: 0x16154, offset: 0x303D1, size: 0x8, addend: 0x0, symName: __ZNSt3__117__compressed_pairIPP9GameStateNS_22__allocator_destructorINS_9allocatorIS2_EEEEEC2B7v160006IRS3_S7_EEOT_OT0_, symObjAddr: 0x101C0, symBinAddr: 0x100012180, symSize: 0x40 }
  - { offsetInCU: 0x161AE, offset: 0x3042B, size: 0x8, addend: 0x0, symName: __ZNSt3__122__compressed_pair_elemIPP9GameStateLi0ELb0EEC2B7v160006IRS3_vEEOT_, symObjAddr: 0x10200, symBinAddr: 0x1000121C0, symSize: 0x90 }
  - { offsetInCU: 0x161F1, offset: 0x3046E, size: 0x8, addend: 0x0, symName: __ZNSt3__122__compressed_pair_elemINS_22__allocator_destructorINS_9allocatorIP9GameStateEEEELi1ELb0EEC2B7v160006IS6_vEEOT_, symObjAddr: 0x10290, symBinAddr: 0x100012250, symSize: 0x30 }
  - { offsetInCU: 0x16234, offset: 0x304B1, size: 0x8, addend: 0x0, symName: __ZNKSt3__117__compressed_pairIPP9GameStateNS_22__allocator_destructorINS_9allocatorIS2_EEEEE5firstB7v160006Ev, symObjAddr: 0x102C0, symBinAddr: 0x100012280, symSize: 0x20 }
  - { offsetInCU: 0x1625A, offset: 0x304D7, size: 0x8, addend: 0x0, symName: __ZNKSt3__122__compressed_pair_elemIPP9GameStateLi0ELb0EE5__getB7v160006Ev, symObjAddr: 0x102E0, symBinAddr: 0x1000122A0, symSize: 0x10 }
  - { offsetInCU: 0x16280, offset: 0x304FD, size: 0x8, addend: 0x0, symName: __ZNSt3__117__compressed_pairIPP9GameStateNS_22__allocator_destructorINS_9allocatorIS2_EEEEE5firstB7v160006Ev, symObjAddr: 0x102F0, symBinAddr: 0x1000122B0, symSize: 0x20 }
  - { offsetInCU: 0x162A6, offset: 0x30523, size: 0x8, addend: 0x0, symName: __ZNSt3__122__compressed_pair_elemIPP9GameStateLi0ELb0EE5__getB7v160006Ev, symObjAddr: 0x10310, symBinAddr: 0x1000122D0, symSize: 0x10 }
  - { offsetInCU: 0x162CC, offset: 0x30549, size: 0x8, addend: 0x0, symName: __ZNSt3__117__compressed_pairIPPP9GameStateNS_9allocatorIS3_EEE5firstB7v160006Ev, symObjAddr: 0x10320, symBinAddr: 0x1000122E0, symSize: 0x20 }
  - { offsetInCU: 0x162F2, offset: 0x3056F, size: 0x8, addend: 0x0, symName: __ZNSt3__122__compressed_pair_elemIPPP9GameStateLi0ELb0EE5__getB7v160006Ev, symObjAddr: 0x10340, symBinAddr: 0x100012300, symSize: 0x10 }
  - { offsetInCU: 0x16318, offset: 0x30595, size: 0x8, addend: 0x0, symName: __ZNSt3__117__compressed_pairIPPP9GameStateRNS_9allocatorIS3_EEE5firstB7v160006Ev, symObjAddr: 0x10350, symBinAddr: 0x100012310, symSize: 0x20 }
  - { offsetInCU: 0x1633E, offset: 0x305BB, size: 0x8, addend: 0x0, symName: __ZNSt3__110unique_ptrIPP9GameStateNS_22__allocator_destructorINS_9allocatorIS2_EEEEED2B7v160006Ev, symObjAddr: 0x10370, symBinAddr: 0x100012330, symSize: 0x20 }
  - { offsetInCU: 0x16368, offset: 0x305E5, size: 0x8, addend: 0x0, symName: __ZNSt3__110unique_ptrIPP9GameStateNS_22__allocator_destructorINS_9allocatorIS2_EEEEE5resetB7v160006ES3_, symObjAddr: 0x10390, symBinAddr: 0x100012350, symSize: 0xC0 }
  - { offsetInCU: 0x163AE, offset: 0x3062B, size: 0x8, addend: 0x0, symName: __ZNSt3__117__compressed_pairIPP9GameStateNS_22__allocator_destructorINS_9allocatorIS2_EEEEE6secondB7v160006Ev, symObjAddr: 0x10450, symBinAddr: 0x100012410, symSize: 0x20 }
  - { offsetInCU: 0x163D4, offset: 0x30651, size: 0x8, addend: 0x0, symName: __ZNSt3__122__allocator_destructorINS_9allocatorIP9GameStateEEEclB7v160006EPS3_, symObjAddr: 0x10470, symBinAddr: 0x100012430, symSize: 0xA0 }
  - { offsetInCU: 0x16409, offset: 0x30686, size: 0x8, addend: 0x0, symName: __ZNSt3__122__compressed_pair_elemINS_22__allocator_destructorINS_9allocatorIP9GameStateEEEELi1ELb0EE5__getB7v160006Ev, symObjAddr: 0x10510, symBinAddr: 0x1000124D0, symSize: 0x10 }
  - { offsetInCU: 0x1642F, offset: 0x306AC, size: 0x8, addend: 0x0, symName: __ZNSt3__114__split_bufferIPP9GameStateRNS_9allocatorIS3_EEED2Ev, symObjAddr: 0x10520, symBinAddr: 0x1000124E0, symSize: 0xB0 }
  - { offsetInCU: 0x1645B, offset: 0x306D8, size: 0x8, addend: 0x0, symName: __ZNSt3__114__split_bufferIPP9GameStateRNS_9allocatorIS3_EEE5clearB7v160006Ev, symObjAddr: 0x105D0, symBinAddr: 0x100012590, symSize: 0x60 }
  - { offsetInCU: 0x16481, offset: 0x306FE, size: 0x8, addend: 0x0, symName: __ZNKSt3__114__split_bufferIPP9GameStateRNS_9allocatorIS3_EEE8capacityB7v160006Ev, symObjAddr: 0x10630, symBinAddr: 0x1000125F0, symSize: 0x90 }
  - { offsetInCU: 0x164A7, offset: 0x30724, size: 0x8, addend: 0x0, symName: __ZNSt3__114__split_bufferIPP9GameStateRNS_9allocatorIS3_EEE17__destruct_at_endB7v160006EPS3_, symObjAddr: 0x106C0, symBinAddr: 0x100012680, symSize: 0x30 }
  - { offsetInCU: 0x164DC, offset: 0x30759, size: 0x8, addend: 0x0, symName: __ZNSt3__114__split_bufferIPP9GameStateRNS_9allocatorIS3_EEE17__destruct_at_endB7v160006EPS3_NS_17integral_constantIbLb0EEE, symObjAddr: 0x106F0, symBinAddr: 0x1000126B0, symSize: 0x100 }
  - { offsetInCU: 0x1651E, offset: 0x3079B, size: 0x8, addend: 0x0, symName: __ZNKSt3__114__split_bufferIPP9GameStateRNS_9allocatorIS3_EEE9__end_capB7v160006Ev, symObjAddr: 0x107F0, symBinAddr: 0x1000127B0, symSize: 0x20 }
  - { offsetInCU: 0x16544, offset: 0x307C1, size: 0x8, addend: 0x0, symName: __ZNKSt3__117__compressed_pairIPPP9GameStateRNS_9allocatorIS3_EEE5firstB7v160006Ev, symObjAddr: 0x10810, symBinAddr: 0x1000127D0, symSize: 0x20 }
  - { offsetInCU: 0x1656A, offset: 0x307E7, size: 0x8, addend: 0x0, symName: __ZNSt3__19allocatorIP9GameStateE9constructB7v160006IS2_JRKS2_EEEvPT_DpOT0_, symObjAddr: 0x10830, symBinAddr: 0x1000127F0, symSize: 0x90 }
  - { offsetInCU: 0x165C2, offset: 0x3083F, size: 0x8, addend: 0x0, symName: __ZNSt3__112basic_stringIcNS_11char_traitsIcEENS_9allocatorIcEEEC2B7v160006IDnEEPKc, symObjAddr: 0x108C0, symBinAddr: 0x100012880, symSize: 0x190 }
  - { offsetInCU: 0x3B, offset: 0x309E6, size: 0x8, addend: 0x0, symName: _.str, symObjAddr: 0xA520, symBinAddr: 0x10002E800, symSize: 0x0 }
  - { offsetInCU: 0x6B, offset: 0x30A16, size: 0x8, addend: 0x0, symName: _.str.1, symObjAddr: 0xA560, symBinAddr: 0x10002E840, symSize: 0x0 }
  - { offsetInCU: 0x88, offset: 0x30A33, size: 0x8, addend: 0x0, symName: _.str.2, symObjAddr: 0xA5A0, symBinAddr: 0x10002E880, symSize: 0x0 }
  - { offsetInCU: 0xA5, offset: 0x30A50, size: 0x8, addend: 0x0, symName: _.str.3, symObjAddr: 0xA5E0, symBinAddr: 0x10002E8C0, symSize: 0x0 }
  - { offsetInCU: 0xB6, offset: 0x30A61, size: 0x8, addend: 0x0, symName: _.str.4, symObjAddr: 0xA620, symBinAddr: 0x10002E900, symSize: 0x0 }
  - { offsetInCU: 0xD3, offset: 0x30A7E, size: 0x8, addend: 0x0, symName: _.str.5, symObjAddr: 0xA640, symBinAddr: 0x10002E920, symSize: 0x0 }
  - { offsetInCU: 0xF0, offset: 0x30A9B, size: 0x8, addend: 0x0, symName: _.str.6, symObjAddr: 0xA680, symBinAddr: 0x10002E960, symSize: 0x0 }
  - { offsetInCU: 0x10D, offset: 0x30AB8, size: 0x8, addend: 0x0, symName: _.str.7, symObjAddr: 0xA6E0, symBinAddr: 0x10002E9C0, symSize: 0x0 }
  - { offsetInCU: 0x11E, offset: 0x30AC9, size: 0x8, addend: 0x0, symName: _.str.8, symObjAddr: 0xA720, symBinAddr: 0x10002EA00, symSize: 0x0 }
  - { offsetInCU: 0x13B, offset: 0x30AE6, size: 0x8, addend: 0x0, symName: _.str.9, symObjAddr: 0xA760, symBinAddr: 0x10002EA40, symSize: 0x0 }
  - { offsetInCU: 0x158, offset: 0x30B03, size: 0x8, addend: 0x0, symName: _.str.10, symObjAddr: 0xA7C0, symBinAddr: 0x10002EAA0, symSize: 0x0 }
  - { offsetInCU: 0x169, offset: 0x30B14, size: 0x8, addend: 0x0, symName: _.str.11, symObjAddr: 0xA800, symBinAddr: 0x10002EAE0, symSize: 0x0 }
  - { offsetInCU: 0x186, offset: 0x30B31, size: 0x8, addend: 0x0, symName: _.str.12, symObjAddr: 0xA820, symBinAddr: 0x10002EB00, symSize: 0x0 }
  - { offsetInCU: 0x1A3, offset: 0x30B4E, size: 0x8, addend: 0x0, symName: _.str.13, symObjAddr: 0xA860, symBinAddr: 0x10002EB40, symSize: 0x0 }
  - { offsetInCU: 0x1C0, offset: 0x30B6B, size: 0x8, addend: 0x0, symName: _.str.14, symObjAddr: 0xA8A0, symBinAddr: 0x10002EB80, symSize: 0x0 }
  - { offsetInCU: 0xC1A5, offset: 0x3CB50, size: 0x8, addend: 0x0, symName: __ZNSt3__111make_sharedB7v160006I7OptionsJEvEENS_10shared_ptrIT_EEDpOT0_, symObjAddr: 0x7C0, symBinAddr: 0x100013210, symSize: 0x160 }
  - { offsetInCU: 0xC1D5, offset: 0x3CB80, size: 0x8, addend: 0x0, symName: __ZNSt3__111make_sharedB7v160006I5GuideJEvEENS_10shared_ptrIT_EEDpOT0_, symObjAddr: 0xAF0, symBinAddr: 0x100013540, symSize: 0x160 }
  - { offsetInCU: 0xC205, offset: 0x3CBB0, size: 0x8, addend: 0x0, symName: __ZNSt3__118__debug_db_erase_cB7v160006INS_6vectorIN2sf6VertexENS_9allocatorIS3_EEEEEEvPT_, symObjAddr: 0x3860, symBinAddr: 0x100016180, symSize: 0x10 }
  - { offsetInCU: 0xC238, offset: 0x3CBE3, size: 0x8, addend: 0x0, symName: __ZNSt3__112__to_addressB7v160006IN2sf6VertexEEEPT_S4_, symObjAddr: 0x3B00, symBinAddr: 0x100016410, symSize: 0x10 }
  - { offsetInCU: 0xC26F, offset: 0x3CC1A, size: 0x8, addend: 0x0, symName: __ZNSt3__119__debug_db_insert_cB7v160006INS_6vectorIPN2sf7TextureENS_9allocatorIS4_EEEEEEvPT_, symObjAddr: 0x4670, symBinAddr: 0x1000168D0, symSize: 0x10 }
  - { offsetInCU: 0xC2A2, offset: 0x3CC4D, size: 0x8, addend: 0x0, symName: __ZNSt3__118__debug_db_erase_cB7v160006INS_6vectorIPN2sf7TextureENS_9allocatorIS4_EEEEEEvPT_, symObjAddr: 0x4EC0, symBinAddr: 0x100017120, symSize: 0x10 }
  - { offsetInCU: 0xC2D5, offset: 0x3CC80, size: 0x8, addend: 0x0, symName: __ZNSt3__112__to_addressB7v160006IPN2sf7TextureEEEPT_S5_, symObjAddr: 0x5130, symBinAddr: 0x100017390, symSize: 0x10 }
  - { offsetInCU: 0xC30C, offset: 0x3CCB7, size: 0x8, addend: 0x0, symName: __ZNSt3__134__libcpp_atomic_refcount_decrementB7v160006IlEET_RS1_, symObjAddr: 0x5510, symBinAddr: 0x100017770, symSize: 0x70 }
  - { offsetInCU: 0xC343, offset: 0x3CCEE, size: 0x8, addend: 0x0, symName: __ZNSt3__115allocate_sharedB7v160006I7OptionsNS_9allocatorIS1_EEJEvEENS_10shared_ptrIT_EERKT0_DpOT1_, symObjAddr: 0x5620, symBinAddr: 0x100017880, symSize: 0x270 }
  - { offsetInCU: 0xC67A, offset: 0x3D025, size: 0x8, addend: 0x0, symName: __ZNSt3__14swapB7v160006IP7OptionsEEvRT_S4_, symObjAddr: 0x6C00, symBinAddr: 0x100018DE0, symSize: 0x100 }
  - { offsetInCU: 0xC6CE, offset: 0x3D079, size: 0x8, addend: 0x0, symName: __ZNSt3__14swapB7v160006IPNS_19__shared_weak_countEEEvRT_S4_, symObjAddr: 0x6D00, symBinAddr: 0x100018EE0, symSize: 0x100 }
  - { offsetInCU: 0xC722, offset: 0x3D0CD, size: 0x8, addend: 0x0, symName: __ZNSt3__115allocate_sharedB7v160006I5GuideNS_9allocatorIS1_EEJEvEENS_10shared_ptrIT_EERKT0_DpOT1_, symObjAddr: 0x6E00, symBinAddr: 0x100018FE0, symSize: 0x270 }
  - { offsetInCU: 0xCA59, offset: 0x3D404, size: 0x8, addend: 0x0, symName: __ZNSt3__14swapB7v160006IP5GuideEEvRT_S4_, symObjAddr: 0x8210, symBinAddr: 0x10001A3F0, symSize: 0x100 }
  - { offsetInCU: 0xF419, offset: 0x3FDC4, size: 0x8, addend: 0x0, symName: __ZN9GameStateC2EPN2sf12RenderWindowE, symObjAddr: 0x0, symBinAddr: 0x100012A90, symSize: 0x6E0 }
  - { offsetInCU: 0xF456, offset: 0x3FE01, size: 0x8, addend: 0x0, symName: __ZNSt3__16vectorIPN2sf7TextureENS_9allocatorIS3_EEEC1B7v160006Ev, symObjAddr: 0x6E0, symBinAddr: 0x100013170, symSize: 0x20 }
  - { offsetInCU: 0xF485, offset: 0x3FE30, size: 0x8, addend: 0x0, symName: __ZNSt3__110shared_ptrI7OptionsEC1B7v160006Ev, symObjAddr: 0x740, symBinAddr: 0x100013190, symSize: 0x20 }
  - { offsetInCU: 0xF4AF, offset: 0x3FE5A, size: 0x8, addend: 0x0, symName: __ZNSt3__110shared_ptrI5GuideEC1B7v160006Ev, symObjAddr: 0x760, symBinAddr: 0x1000131B0, symSize: 0x20 }
  - { offsetInCU: 0xF4D9, offset: 0x3FE84, size: 0x8, addend: 0x0, symName: __ZN2sf7Vector2IiEC1Ev, symObjAddr: 0x780, symBinAddr: 0x1000131D0, symSize: 0x20 }
  - { offsetInCU: 0xF505, offset: 0x3FEB0, size: 0x8, addend: 0x0, symName: __ZN2sf7Vector2IfEC1Ev, symObjAddr: 0x7A0, symBinAddr: 0x1000131F0, symSize: 0x20 }
  - { offsetInCU: 0xF531, offset: 0x3FEDC, size: 0x8, addend: 0x0, symName: __ZNSt3__110shared_ptrI7OptionsEaSB7v160006EOS2_, symObjAddr: 0x920, symBinAddr: 0x100013370, symSize: 0x1B0 }
  - { offsetInCU: 0xF569, offset: 0x3FF14, size: 0x8, addend: 0x0, symName: __ZNSt3__110shared_ptrI7OptionsED1B7v160006Ev, symObjAddr: 0xAD0, symBinAddr: 0x100013520, symSize: 0x20 }
  - { offsetInCU: 0xF593, offset: 0x3FF3E, size: 0x8, addend: 0x0, symName: __ZNSt3__110shared_ptrI5GuideEaSB7v160006EOS2_, symObjAddr: 0xC50, symBinAddr: 0x1000136A0, symSize: 0x1B0 }
  - { offsetInCU: 0xF5CB, offset: 0x3FF76, size: 0x8, addend: 0x0, symName: __ZNSt3__110shared_ptrI5GuideED1B7v160006Ev, symObjAddr: 0xE00, symBinAddr: 0x100013850, symSize: 0x20 }
  - { offsetInCU: 0xF5F5, offset: 0x3FFA0, size: 0x8, addend: 0x0, symName: __ZN2sf4TextD1Ev, symObjAddr: 0xE20, symBinAddr: 0x100013870, symSize: 0x20 }
  - { offsetInCU: 0xF621, offset: 0x3FFCC, size: 0x8, addend: 0x0, symName: __ZNSt3__16vectorIPN2sf7TextureENS_9allocatorIS3_EEED1B7v160006Ev, symObjAddr: 0xE40, symBinAddr: 0x100013890, symSize: 0x20 }
  - { offsetInCU: 0xF64B, offset: 0x3FFF6, size: 0x8, addend: 0x0, symName: __ZN9GameStateD2Ev, symObjAddr: 0xE60, symBinAddr: 0x1000138B0, symSize: 0x160 }
  - { offsetInCU: 0xF677, offset: 0x40022, size: 0x8, addend: 0x0, symName: __ZN9GameStateD1Ev, symObjAddr: 0xFC0, symBinAddr: 0x100013A10, symSize: 0x20 }
  - { offsetInCU: 0xF6A3, offset: 0x4004E, size: 0x8, addend: 0x0, symName: __ZN9GameStateD0Ev, symObjAddr: 0xFE0, symBinAddr: 0x100013A30, symSize: 0x20 }
  - { offsetInCU: 0xF6CF, offset: 0x4007A, size: 0x8, addend: 0x0, symName: __ZN9GameState13updateOptionsEv, symObjAddr: 0x1000, symBinAddr: 0x100013A50, symSize: 0xEB0 }
  - { offsetInCU: 0xF6F8, offset: 0x400A3, size: 0x8, addend: 0x0, symName: __ZNKSt3__110shared_ptrI7OptionsEptB7v160006Ev, symObjAddr: 0x1FC0, symBinAddr: 0x100014900, symSize: 0x50 }
  - { offsetInCU: 0xF71E, offset: 0x400C9, size: 0x8, addend: 0x0, symName: __ZNKSt3__110shared_ptrI5GuideEptB7v160006Ev, symObjAddr: 0x2010, symBinAddr: 0x100014950, symSize: 0x50 }
  - { offsetInCU: 0xF744, offset: 0x400EF, size: 0x8, addend: 0x0, symName: __ZN9GameState6updateERKfPN2sf12RenderWindowE, symObjAddr: 0x2060, symBinAddr: 0x1000149A0, symSize: 0x30 }
  - { offsetInCU: 0xF78A, offset: 0x40135, size: 0x8, addend: 0x0, symName: __ZN9GameState8initFontERN2sf4FontENSt3__112basic_stringIcNS3_11char_traitsIcEENS3_9allocatorIcEEEE, symObjAddr: 0x2090, symBinAddr: 0x1000149D0, symSize: 0x60 }
  - { offsetInCU: 0xF7D1, offset: 0x4017C, size: 0x8, addend: 0x0, symName: __ZN9GameState7setTextERN2sf4TextERNS0_4FontENS0_5ColorEsssNSt3__112basic_stringIcNS6_11char_traitsIcEENS6_9allocatorIcEEEE, symObjAddr: 0x20F0, symBinAddr: 0x100014A30, symSize: 0x4D0 }
  - { offsetInCU: 0xF86E, offset: 0x40219, size: 0x8, addend: 0x0, symName: __ZNK9GameState7getQuitEv, symObjAddr: 0x25E0, symBinAddr: 0x100014F00, symSize: 0x70 }
  - { offsetInCU: 0xF896, offset: 0x40241, size: 0x8, addend: 0x0, symName: __ZN9GameState8endStateEv, symObjAddr: 0x2650, symBinAddr: 0x100014F70, symSize: 0x40 }
  - { offsetInCU: 0xF8BE, offset: 0x40269, size: 0x8, addend: 0x0, symName: __ZN9GameState11checkForEndEv, symObjAddr: 0x2690, symBinAddr: 0x100014FB0, symSize: 0x90 }
  - { offsetInCU: 0xF8E6, offset: 0x40291, size: 0x8, addend: 0x0, symName: __ZN9GameState19updateMousePositionEv, symObjAddr: 0x2720, symBinAddr: 0x100015040, symSize: 0x660 }
  - { offsetInCU: 0xF90F, offset: 0x402BA, size: 0x8, addend: 0x0, symName: __ZN9GameState6renderEPN2sf12RenderTargetE, symObjAddr: 0x2D80, symBinAddr: 0x1000156A0, symSize: 0x340 }
  - { offsetInCU: 0xF946, offset: 0x402F1, size: 0x8, addend: 0x0, symName: __ZN2sf4TextD2Ev, symObjAddr: 0x30C0, symBinAddr: 0x1000159E0, symSize: 0x1B0 }
  - { offsetInCU: 0xF972, offset: 0x4031D, size: 0x8, addend: 0x0, symName: __ZThn8_N2sf4TextD1Ev, symObjAddr: 0x3270, symBinAddr: 0x100015B90, symSize: 0x20 }
  - { offsetInCU: 0xF988, offset: 0x40333, size: 0x8, addend: 0x0, symName: __ZN2sf11VertexArrayD1Ev, symObjAddr: 0x3290, symBinAddr: 0x100015BB0, symSize: 0x20 }
  - { offsetInCU: 0xF9B4, offset: 0x4035F, size: 0x8, addend: 0x0, symName: __ZN2sf8DrawableD2Ev, symObjAddr: 0x32B0, symBinAddr: 0x100015BD0, symSize: 0x10 }
  - { offsetInCU: 0xF9DE, offset: 0x40389, size: 0x8, addend: 0x0, symName: __ZN2sf11VertexArrayD2Ev, symObjAddr: 0x32C0, symBinAddr: 0x100015BE0, symSize: 0xB0 }
  - { offsetInCU: 0xFA0A, offset: 0x403B5, size: 0x8, addend: 0x0, symName: __ZNSt3__16vectorIN2sf6VertexENS_9allocatorIS2_EEED1B7v160006Ev, symObjAddr: 0x3370, symBinAddr: 0x100015C90, symSize: 0x20 }
  - { offsetInCU: 0xFA34, offset: 0x403DF, size: 0x8, addend: 0x0, symName: __ZNSt3__16vectorIN2sf6VertexENS_9allocatorIS2_EEED2B7v160006Ev, symObjAddr: 0x3390, symBinAddr: 0x100015CB0, symSize: 0x150 }
  - { offsetInCU: 0xFA5E, offset: 0x40409, size: 0x8, addend: 0x0, symName: __ZNSt3__16vectorIN2sf6VertexENS_9allocatorIS2_EEE16__destroy_vectorC1ERS5_, symObjAddr: 0x34E0, symBinAddr: 0x100015E00, symSize: 0x30 }
  - { offsetInCU: 0xFA98, offset: 0x40443, size: 0x8, addend: 0x0, symName: __ZNSt3__16vectorIN2sf6VertexENS_9allocatorIS2_EEE16__destroy_vectorclB7v160006Ev, symObjAddr: 0x3510, symBinAddr: 0x100015E30, symSize: 0x210 }
  - { offsetInCU: 0xFABE, offset: 0x40469, size: 0x8, addend: 0x0, symName: __ZNSt3__16vectorIN2sf6VertexENS_9allocatorIS2_EEE16__destroy_vectorC2ERS5_, symObjAddr: 0x3720, symBinAddr: 0x100016040, symSize: 0x60 }
  - { offsetInCU: 0xFAF8, offset: 0x404A3, size: 0x8, addend: 0x0, symName: __ZNKSt3__16vectorIN2sf6VertexENS_9allocatorIS2_EEE17__annotate_deleteB7v160006Ev, symObjAddr: 0x3780, symBinAddr: 0x1000160A0, symSize: 0xE0 }
  - { offsetInCU: 0xFB1E, offset: 0x404C9, size: 0x8, addend: 0x0, symName: __ZNSt3__16vectorIN2sf6VertexENS_9allocatorIS2_EEE7__clearB7v160006Ev, symObjAddr: 0x3870, symBinAddr: 0x100016190, symSize: 0x50 }
  - { offsetInCU: 0xFB44, offset: 0x404EF, size: 0x8, addend: 0x0, symName: __ZNSt3__116allocator_traitsINS_9allocatorIN2sf6VertexEEEE10deallocateB7v160006ERS4_PS3_m, symObjAddr: 0x38C0, symBinAddr: 0x1000161E0, symSize: 0x30 }
  - { offsetInCU: 0xFB89, offset: 0x40534, size: 0x8, addend: 0x0, symName: __ZNSt3__16vectorIN2sf6VertexENS_9allocatorIS2_EEE7__allocB7v160006Ev, symObjAddr: 0x38F0, symBinAddr: 0x100016210, symSize: 0x20 }
  - { offsetInCU: 0xFBAF, offset: 0x4055A, size: 0x8, addend: 0x0, symName: __ZNKSt3__16vectorIN2sf6VertexENS_9allocatorIS2_EEE8capacityB7v160006Ev, symObjAddr: 0x3910, symBinAddr: 0x100016230, symSize: 0xA0 }
  - { offsetInCU: 0xFBD5, offset: 0x40580, size: 0x8, addend: 0x0, symName: __ZNKSt3__16vectorIN2sf6VertexENS_9allocatorIS2_EEE31__annotate_contiguous_containerEPKvS7_S7_S7_, symObjAddr: 0x39B0, symBinAddr: 0x1000162D0, symSize: 0x50 }
  - { offsetInCU: 0xFC3B, offset: 0x405E6, size: 0x8, addend: 0x0, symName: __ZNKSt3__16vectorIN2sf6VertexENS_9allocatorIS2_EEE4dataB7v160006Ev, symObjAddr: 0x3A00, symBinAddr: 0x100016320, symSize: 0x50 }
  - { offsetInCU: 0xFC61, offset: 0x4060C, size: 0x8, addend: 0x0, symName: __ZNKSt3__16vectorIN2sf6VertexENS_9allocatorIS2_EEE4sizeB7v160006Ev, symObjAddr: 0x3A50, symBinAddr: 0x100016370, symSize: 0xA0 }
  - { offsetInCU: 0xFC87, offset: 0x40632, size: 0x8, addend: 0x0, symName: __ZNSt3__16vectorIN2sf6VertexENS_9allocatorIS2_EEE22__base_destruct_at_endB7v160006EPS2_, symObjAddr: 0x3B10, symBinAddr: 0x100016420, symSize: 0x100 }
  - { offsetInCU: 0xFCCD, offset: 0x40678, size: 0x8, addend: 0x0, symName: __ZNSt3__116allocator_traitsINS_9allocatorIN2sf6VertexEEEE7destroyB7v160006IS3_vEEvRS4_PT_, symObjAddr: 0x3C10, symBinAddr: 0x100016520, symSize: 0x30 }
  - { offsetInCU: 0xFD0C, offset: 0x406B7, size: 0x8, addend: 0x0, symName: __ZNSt3__19allocatorIN2sf6VertexEE7destroyB7v160006EPS2_, symObjAddr: 0x3C40, symBinAddr: 0x100016550, symSize: 0x10 }
  - { offsetInCU: 0xFD41, offset: 0x406EC, size: 0x8, addend: 0x0, symName: __ZNSt3__19allocatorIN2sf6VertexEE10deallocateB7v160006EPS2_m, symObjAddr: 0x3C50, symBinAddr: 0x100016560, symSize: 0x80 }
  - { offsetInCU: 0xFD85, offset: 0x40730, size: 0x8, addend: 0x0, symName: __ZNSt3__117__compressed_pairIPN2sf6VertexENS_9allocatorIS2_EEE6secondB7v160006Ev, symObjAddr: 0x3D40, symBinAddr: 0x1000165E0, symSize: 0x20 }
  - { offsetInCU: 0xFDAB, offset: 0x40756, size: 0x8, addend: 0x0, symName: __ZNSt3__122__compressed_pair_elemINS_9allocatorIN2sf6VertexEEELi1ELb1EE5__getB7v160006Ev, symObjAddr: 0x3D60, symBinAddr: 0x100016600, symSize: 0x10 }
  - { offsetInCU: 0xFDD1, offset: 0x4077C, size: 0x8, addend: 0x0, symName: __ZNKSt3__16vectorIN2sf6VertexENS_9allocatorIS2_EEE9__end_capB7v160006Ev, symObjAddr: 0x3D70, symBinAddr: 0x100016610, symSize: 0x20 }
  - { offsetInCU: 0xFDF7, offset: 0x407A2, size: 0x8, addend: 0x0, symName: __ZNKSt3__117__compressed_pairIPN2sf6VertexENS_9allocatorIS2_EEE5firstB7v160006Ev, symObjAddr: 0x3D90, symBinAddr: 0x100016630, symSize: 0x20 }
  - { offsetInCU: 0xFE1D, offset: 0x407C8, size: 0x8, addend: 0x0, symName: __ZNKSt3__122__compressed_pair_elemIPN2sf6VertexELi0ELb0EE5__getB7v160006Ev, symObjAddr: 0x3DB0, symBinAddr: 0x100016650, symSize: 0x10 }
  - { offsetInCU: 0xFE48, offset: 0x407F3, size: 0x8, addend: 0x0, symName: __ZNSt3__16vectorIPN2sf7TextureENS_9allocatorIS3_EEEC2B7v160006Ev, symObjAddr: 0x4400, symBinAddr: 0x100016660, symSize: 0x240 }
  - { offsetInCU: 0xFE78, offset: 0x40823, size: 0x8, addend: 0x0, symName: __ZNSt3__117__compressed_pairIPPN2sf7TextureENS_9allocatorIS3_EEEC1B7v160006IDnNS_18__default_init_tagEEEOT_OT0_, symObjAddr: 0x4640, symBinAddr: 0x1000168A0, symSize: 0x30 }
  - { offsetInCU: 0xFED2, offset: 0x4087D, size: 0x8, addend: 0x0, symName: __ZNSt3__117__compressed_pairIPPN2sf7TextureENS_9allocatorIS3_EEEC2B7v160006IDnNS_18__default_init_tagEEEOT_OT0_, symObjAddr: 0x4680, symBinAddr: 0x1000168E0, symSize: 0x40 }
  - { offsetInCU: 0xFF2C, offset: 0x408D7, size: 0x8, addend: 0x0, symName: __ZNSt3__122__compressed_pair_elemIPPN2sf7TextureELi0ELb0EEC2B7v160006IDnvEEOT_, symObjAddr: 0x46C0, symBinAddr: 0x100016920, symSize: 0x50 }
  - { offsetInCU: 0xFF6F, offset: 0x4091A, size: 0x8, addend: 0x0, symName: __ZNSt3__122__compressed_pair_elemINS_9allocatorIPN2sf7TextureEEELi1ELb1EEC2B7v160006ENS_18__default_init_tagE, symObjAddr: 0x4710, symBinAddr: 0x100016970, symSize: 0x20 }
  - { offsetInCU: 0xFFA4, offset: 0x4094F, size: 0x8, addend: 0x0, symName: __ZNSt3__19allocatorIPN2sf7TextureEEC2B7v160006Ev, symObjAddr: 0x4730, symBinAddr: 0x100016990, symSize: 0x20 }
  - { offsetInCU: 0xFFCE, offset: 0x40979, size: 0x8, addend: 0x0, symName: __ZNSt3__116__non_trivial_ifILb1ENS_9allocatorIPN2sf7TextureEEEEC2B7v160006Ev, symObjAddr: 0x4750, symBinAddr: 0x1000169B0, symSize: 0x10 }
  - { offsetInCU: 0xFFF8, offset: 0x409A3, size: 0x8, addend: 0x0, symName: __ZNSt3__110shared_ptrI7OptionsEC2B7v160006Ev, symObjAddr: 0x4760, symBinAddr: 0x1000169C0, symSize: 0x90 }
  - { offsetInCU: 0x10022, offset: 0x409CD, size: 0x8, addend: 0x0, symName: __ZNSt3__110shared_ptrI5GuideEC2B7v160006Ev, symObjAddr: 0x47F0, symBinAddr: 0x100016A50, symSize: 0x90 }
  - { offsetInCU: 0x1004C, offset: 0x409F7, size: 0x8, addend: 0x0, symName: __ZN2sf7Vector2IiEC2Ev, symObjAddr: 0x4880, symBinAddr: 0x100016AE0, symSize: 0xC0 }
  - { offsetInCU: 0x10078, offset: 0x40A23, size: 0x8, addend: 0x0, symName: __ZN2sf7Vector2IfEC2Ev, symObjAddr: 0x4940, symBinAddr: 0x100016BA0, symSize: 0xC0 }
  - { offsetInCU: 0x100A4, offset: 0x40A4F, size: 0x8, addend: 0x0, symName: __ZNSt3__16vectorIPN2sf7TextureENS_9allocatorIS3_EEED2B7v160006Ev, symObjAddr: 0x4A00, symBinAddr: 0x100016C60, symSize: 0x150 }
  - { offsetInCU: 0x100CE, offset: 0x40A79, size: 0x8, addend: 0x0, symName: __ZNSt3__16vectorIPN2sf7TextureENS_9allocatorIS3_EEE16__destroy_vectorC1ERS6_, symObjAddr: 0x4B50, symBinAddr: 0x100016DB0, symSize: 0x30 }
  - { offsetInCU: 0x10108, offset: 0x40AB3, size: 0x8, addend: 0x0, symName: __ZNSt3__16vectorIPN2sf7TextureENS_9allocatorIS3_EEE16__destroy_vectorclB7v160006Ev, symObjAddr: 0x4B80, symBinAddr: 0x100016DE0, symSize: 0x210 }
  - { offsetInCU: 0x1012E, offset: 0x40AD9, size: 0x8, addend: 0x0, symName: __ZNSt3__16vectorIPN2sf7TextureENS_9allocatorIS3_EEE16__destroy_vectorC2ERS6_, symObjAddr: 0x4D90, symBinAddr: 0x100016FF0, symSize: 0x60 }
  - { offsetInCU: 0x10168, offset: 0x40B13, size: 0x8, addend: 0x0, symName: __ZNKSt3__16vectorIPN2sf7TextureENS_9allocatorIS3_EEE17__annotate_deleteB7v160006Ev, symObjAddr: 0x4DF0, symBinAddr: 0x100017050, symSize: 0xD0 }
  - { offsetInCU: 0x1018E, offset: 0x40B39, size: 0x8, addend: 0x0, symName: __ZNSt3__16vectorIPN2sf7TextureENS_9allocatorIS3_EEE7__clearB7v160006Ev, symObjAddr: 0x4ED0, symBinAddr: 0x100017130, symSize: 0x50 }
  - { offsetInCU: 0x101B4, offset: 0x40B5F, size: 0x8, addend: 0x0, symName: __ZNSt3__116allocator_traitsINS_9allocatorIPN2sf7TextureEEEE10deallocateB7v160006ERS5_PS4_m, symObjAddr: 0x4F20, symBinAddr: 0x100017180, symSize: 0x30 }
  - { offsetInCU: 0x101F9, offset: 0x40BA4, size: 0x8, addend: 0x0, symName: __ZNSt3__16vectorIPN2sf7TextureENS_9allocatorIS3_EEE7__allocB7v160006Ev, symObjAddr: 0x4F50, symBinAddr: 0x1000171B0, symSize: 0x20 }
  - { offsetInCU: 0x1021F, offset: 0x40BCA, size: 0x8, addend: 0x0, symName: __ZNKSt3__16vectorIPN2sf7TextureENS_9allocatorIS3_EEE8capacityB7v160006Ev, symObjAddr: 0x4F70, symBinAddr: 0x1000171D0, symSize: 0x90 }
  - { offsetInCU: 0x10245, offset: 0x40BF0, size: 0x8, addend: 0x0, symName: __ZNKSt3__16vectorIPN2sf7TextureENS_9allocatorIS3_EEE31__annotate_contiguous_containerEPKvS8_S8_S8_, symObjAddr: 0x5000, symBinAddr: 0x100017260, symSize: 0x50 }
  - { offsetInCU: 0x102AB, offset: 0x40C56, size: 0x8, addend: 0x0, symName: __ZNKSt3__16vectorIPN2sf7TextureENS_9allocatorIS3_EEE4dataB7v160006Ev, symObjAddr: 0x5050, symBinAddr: 0x1000172B0, symSize: 0x50 }
  - { offsetInCU: 0x102D1, offset: 0x40C7C, size: 0x8, addend: 0x0, symName: __ZNKSt3__16vectorIPN2sf7TextureENS_9allocatorIS3_EEE4sizeB7v160006Ev, symObjAddr: 0x50A0, symBinAddr: 0x100017300, symSize: 0x90 }
  - { offsetInCU: 0x102F7, offset: 0x40CA2, size: 0x8, addend: 0x0, symName: __ZNSt3__16vectorIPN2sf7TextureENS_9allocatorIS3_EEE22__base_destruct_at_endB7v160006EPS3_, symObjAddr: 0x5140, symBinAddr: 0x1000173A0, symSize: 0x100 }
  - { offsetInCU: 0x1033D, offset: 0x40CE8, size: 0x8, addend: 0x0, symName: __ZNSt3__116allocator_traitsINS_9allocatorIPN2sf7TextureEEEE7destroyB7v160006IS4_vEEvRS5_PT_, symObjAddr: 0x5240, symBinAddr: 0x1000174A0, symSize: 0x30 }
  - { offsetInCU: 0x1037C, offset: 0x40D27, size: 0x8, addend: 0x0, symName: __ZNSt3__19allocatorIPN2sf7TextureEE7destroyB7v160006EPS3_, symObjAddr: 0x5270, symBinAddr: 0x1000174D0, symSize: 0x10 }
  - { offsetInCU: 0x103B1, offset: 0x40D5C, size: 0x8, addend: 0x0, symName: __ZNSt3__19allocatorIPN2sf7TextureEE10deallocateB7v160006EPS3_m, symObjAddr: 0x5280, symBinAddr: 0x1000174E0, symSize: 0x80 }
  - { offsetInCU: 0x103F5, offset: 0x40DA0, size: 0x8, addend: 0x0, symName: __ZNSt3__117__compressed_pairIPPN2sf7TextureENS_9allocatorIS3_EEE6secondB7v160006Ev, symObjAddr: 0x5300, symBinAddr: 0x100017560, symSize: 0x20 }
  - { offsetInCU: 0x1041B, offset: 0x40DC6, size: 0x8, addend: 0x0, symName: __ZNSt3__122__compressed_pair_elemINS_9allocatorIPN2sf7TextureEEELi1ELb1EE5__getB7v160006Ev, symObjAddr: 0x5320, symBinAddr: 0x100017580, symSize: 0x10 }
  - { offsetInCU: 0x10441, offset: 0x40DEC, size: 0x8, addend: 0x0, symName: __ZNKSt3__16vectorIPN2sf7TextureENS_9allocatorIS3_EEE9__end_capB7v160006Ev, symObjAddr: 0x5330, symBinAddr: 0x100017590, symSize: 0x20 }
  - { offsetInCU: 0x10467, offset: 0x40E12, size: 0x8, addend: 0x0, symName: __ZNKSt3__117__compressed_pairIPPN2sf7TextureENS_9allocatorIS3_EEE5firstB7v160006Ev, symObjAddr: 0x5350, symBinAddr: 0x1000175B0, symSize: 0x20 }
  - { offsetInCU: 0x1048D, offset: 0x40E38, size: 0x8, addend: 0x0, symName: __ZNKSt3__122__compressed_pair_elemIPPN2sf7TextureELi0ELb0EE5__getB7v160006Ev, symObjAddr: 0x5370, symBinAddr: 0x1000175D0, symSize: 0x10 }
  - { offsetInCU: 0x104B3, offset: 0x40E5E, size: 0x8, addend: 0x0, symName: __ZNSt3__110shared_ptrI7OptionsED2B7v160006Ev, symObjAddr: 0x5380, symBinAddr: 0x1000175E0, symSize: 0xA0 }
  - { offsetInCU: 0x104DD, offset: 0x40E88, size: 0x8, addend: 0x0, symName: __ZNSt3__119__shared_weak_count16__release_sharedB7v160006Ev, symObjAddr: 0x5420, symBinAddr: 0x100017680, symSize: 0x40 }
  - { offsetInCU: 0x10503, offset: 0x40EAE, size: 0x8, addend: 0x0, symName: __ZNSt3__114__shared_count16__release_sharedB7v160006Ev, symObjAddr: 0x5460, symBinAddr: 0x1000176C0, symSize: 0xB0 }
  - { offsetInCU: 0x10529, offset: 0x40ED4, size: 0x8, addend: 0x0, symName: __ZNSt3__110shared_ptrI5GuideED2B7v160006Ev, symObjAddr: 0x5580, symBinAddr: 0x1000177E0, symSize: 0xA0 }
  - { offsetInCU: 0x10553, offset: 0x40EFE, size: 0x8, addend: 0x0, symName: __ZNSt3__19allocatorI7OptionsEC1B7v160006Ev, symObjAddr: 0x5890, symBinAddr: 0x100017AF0, symSize: 0x20 }
  - { offsetInCU: 0x105B9, offset: 0x40F64, size: 0x8, addend: 0x0, symName: __ZNSt3__118__allocation_guardINS_9allocatorINS_20__shared_ptr_emplaceI7OptionsNS1_IS3_EEEEEEEC1B7v160006IS4_EET_m, symObjAddr: 0x58B0, symBinAddr: 0x100017B10, symSize: 0x30 }
  - { offsetInCU: 0x1060A, offset: 0x40FB5, size: 0x8, addend: 0x0, symName: __ZNKSt3__118__allocation_guardINS_9allocatorINS_20__shared_ptr_emplaceI7OptionsNS1_IS3_EEEEEEE5__getB7v160006Ev, symObjAddr: 0x58E0, symBinAddr: 0x100017B40, symSize: 0x50 }
  - { offsetInCU: 0x10630, offset: 0x40FDB, size: 0x8, addend: 0x0, symName: __ZNSt3__120__shared_ptr_emplaceI7OptionsNS_9allocatorIS1_EEEC1B7v160006IJEEES3_DpOT_, symObjAddr: 0x5930, symBinAddr: 0x100017B90, symSize: 0x20 }
  - { offsetInCU: 0x10670, offset: 0x4101B, size: 0x8, addend: 0x0, symName: __ZNSt3__118__allocation_guardINS_9allocatorINS_20__shared_ptr_emplaceI7OptionsNS1_IS3_EEEEEEE13__release_ptrB7v160006Ev, symObjAddr: 0x5950, symBinAddr: 0x100017BB0, symSize: 0xA0 }
  - { offsetInCU: 0x106A4, offset: 0x4104F, size: 0x8, addend: 0x0, symName: __ZNSt3__110shared_ptrI7OptionsE27__create_with_control_blockB7v160006IS1_NS_20__shared_ptr_emplaceIS1_NS_9allocatorIS1_EEEEEES2_PT_PT0_, symObjAddr: 0x59F0, symBinAddr: 0x100017C50, symSize: 0x160 }
  - { offsetInCU: 0x106FC, offset: 0x410A7, size: 0x8, addend: 0x0, symName: __ZNSt3__120__shared_ptr_emplaceI7OptionsNS_9allocatorIS1_EEE10__get_elemB7v160006Ev, symObjAddr: 0x5B50, symBinAddr: 0x100017DB0, symSize: 0x20 }
  - { offsetInCU: 0x10722, offset: 0x410CD, size: 0x8, addend: 0x0, symName: __ZNSt3__118__allocation_guardINS_9allocatorINS_20__shared_ptr_emplaceI7OptionsNS1_IS3_EEEEEEED1B7v160006Ev, symObjAddr: 0x5B70, symBinAddr: 0x100017DD0, symSize: 0x20 }
  - { offsetInCU: 0x1074C, offset: 0x410F7, size: 0x8, addend: 0x0, symName: __ZNSt3__118__allocation_guardINS_9allocatorINS_20__shared_ptr_emplaceI7OptionsNS1_IS3_EEEEEEEC2B7v160006IS4_EET_m, symObjAddr: 0x5B90, symBinAddr: 0x100017DF0, symSize: 0x210 }
  - { offsetInCU: 0x107A3, offset: 0x4114E, size: 0x8, addend: 0x0, symName: __ZNSt3__19allocatorINS_20__shared_ptr_emplaceI7OptionsNS0_IS2_EEEEEC1B7v160006IS2_EERKNS0_IT_EE, symObjAddr: 0x5DA0, symBinAddr: 0x100018000, symSize: 0x30 }
  - { offsetInCU: 0x107E1, offset: 0x4118C, size: 0x8, addend: 0x0, symName: __ZNSt3__116allocator_traitsINS_9allocatorINS_20__shared_ptr_emplaceI7OptionsNS1_IS3_EEEEEEE8allocateB7v160006ERS6_m, symObjAddr: 0x5DD0, symBinAddr: 0x100018030, symSize: 0x30 }
  - { offsetInCU: 0x10816, offset: 0x411C1, size: 0x8, addend: 0x0, symName: __ZNSt3__19allocatorINS_20__shared_ptr_emplaceI7OptionsNS0_IS2_EEEEEC2B7v160006IS2_EERKNS0_IT_EE, symObjAddr: 0x5E00, symBinAddr: 0x100018060, symSize: 0x20 }
  - { offsetInCU: 0x10854, offset: 0x411FF, size: 0x8, addend: 0x0, symName: __ZNSt3__116__non_trivial_ifILb1ENS_9allocatorINS_20__shared_ptr_emplaceI7OptionsNS1_IS3_EEEEEEEC2B7v160006Ev, symObjAddr: 0x5E20, symBinAddr: 0x100018080, symSize: 0x10 }
  - { offsetInCU: 0x1087E, offset: 0x41229, size: 0x8, addend: 0x0, symName: __ZNSt3__19allocatorINS_20__shared_ptr_emplaceI7OptionsNS0_IS2_EEEEE8allocateB7v160006Em, symObjAddr: 0x5E30, symBinAddr: 0x100018090, symSize: 0x90 }
  - { offsetInCU: 0x108BD, offset: 0x41268, size: 0x8, addend: 0x0, symName: __ZNSt3__116allocator_traitsINS_9allocatorINS_20__shared_ptr_emplaceI7OptionsNS1_IS3_EEEEEEE8max_sizeB7v160006IS6_vEEmRKS6_, symObjAddr: 0x5EC0, symBinAddr: 0x100018120, symSize: 0x20 }
  - { offsetInCU: 0x108EC, offset: 0x41297, size: 0x8, addend: 0x0, symName: __ZNKSt3__19allocatorINS_20__shared_ptr_emplaceI7OptionsNS0_IS2_EEEEE8max_sizeB7v160006Ev, symObjAddr: 0x5F40, symBinAddr: 0x100018140, symSize: 0x20 }
  - { offsetInCU: 0x10912, offset: 0x412BD, size: 0x8, addend: 0x0, symName: __ZNSt3__120__shared_ptr_emplaceI7OptionsNS_9allocatorIS1_EEEC2B7v160006IJEEES3_DpOT_, symObjAddr: 0x5F80, symBinAddr: 0x100018160, symSize: 0x260 }
  - { offsetInCU: 0x10957, offset: 0x41302, size: 0x8, addend: 0x0, symName: __ZNSt3__119__shared_weak_countC2B7v160006El, symObjAddr: 0x61E0, symBinAddr: 0x1000183C0, symSize: 0xB0 }
  - { offsetInCU: 0x10990, offset: 0x4133B, size: 0x8, addend: 0x0, symName: __ZNSt3__120__shared_ptr_emplaceI7OptionsNS_9allocatorIS1_EEE8_StorageC1B7v160006EOS3_, symObjAddr: 0x6290, symBinAddr: 0x100018470, symSize: 0x30 }
  - { offsetInCU: 0x109CA, offset: 0x41375, size: 0x8, addend: 0x0, symName: __ZNSt3__120__shared_ptr_emplaceI7OptionsNS_9allocatorIS1_EEE8_StorageD1B7v160006Ev, symObjAddr: 0x62C0, symBinAddr: 0x1000184A0, symSize: 0x20 }
  - { offsetInCU: 0x109F4, offset: 0x4139F, size: 0x8, addend: 0x0, symName: __ZNSt3__120__shared_ptr_emplaceI7OptionsNS_9allocatorIS1_EEED1Ev, symObjAddr: 0x62E0, symBinAddr: 0x1000184C0, symSize: 0x20 }
  - { offsetInCU: 0x10A21, offset: 0x413CC, size: 0x8, addend: 0x0, symName: __ZNSt3__120__shared_ptr_emplaceI7OptionsNS_9allocatorIS1_EEED0Ev, symObjAddr: 0x6300, symBinAddr: 0x1000184E0, symSize: 0x50 }
  - { offsetInCU: 0x10A4E, offset: 0x413F9, size: 0x8, addend: 0x0, symName: __ZNSt3__120__shared_ptr_emplaceI7OptionsNS_9allocatorIS1_EEE16__on_zero_sharedEv, symObjAddr: 0x6350, symBinAddr: 0x100018530, symSize: 0xB0 }
  - { offsetInCU: 0x10A74, offset: 0x4141F, size: 0x8, addend: 0x0, symName: __ZNSt3__120__shared_ptr_emplaceI7OptionsNS_9allocatorIS1_EEE21__on_zero_shared_weakEv, symObjAddr: 0x6400, symBinAddr: 0x1000185E0, symSize: 0x1B0 }
  - { offsetInCU: 0x10ABB, offset: 0x41466, size: 0x8, addend: 0x0, symName: __ZNSt3__114__shared_countC2B7v160006El, symObjAddr: 0x65B0, symBinAddr: 0x100018790, symSize: 0xA0 }
  - { offsetInCU: 0x10AF4, offset: 0x4149F, size: 0x8, addend: 0x0, symName: __ZNSt3__120__shared_ptr_emplaceI7OptionsNS_9allocatorIS1_EEE8_StorageC2B7v160006EOS3_, symObjAddr: 0x6650, symBinAddr: 0x100018830, symSize: 0x20 }
  - { offsetInCU: 0x10B2E, offset: 0x414D9, size: 0x8, addend: 0x0, symName: __ZNSt3__120__shared_ptr_emplaceI7OptionsNS_9allocatorIS1_EEE8_Storage11__get_allocEv, symObjAddr: 0x6670, symBinAddr: 0x100018850, symSize: 0x40 }
  - { offsetInCU: 0x10B84, offset: 0x4152F, size: 0x8, addend: 0x0, symName: __ZNSt3__117__compressed_pairINS_9allocatorI7OptionsEES2_E16__get_first_baseB7v160006EPS4_, symObjAddr: 0x66B0, symBinAddr: 0x100018890, symSize: 0x10 }
  - { offsetInCU: 0x10BA8, offset: 0x41553, size: 0x8, addend: 0x0, symName: __ZNSt3__120__shared_ptr_emplaceI7OptionsNS_9allocatorIS1_EEE8_StorageD2B7v160006Ev, symObjAddr: 0x66C0, symBinAddr: 0x1000188A0, symSize: 0x20 }
  - { offsetInCU: 0x10BD2, offset: 0x4157D, size: 0x8, addend: 0x0, symName: __ZNSt3__120__shared_ptr_emplaceI7OptionsNS_9allocatorIS1_EEED2Ev, symObjAddr: 0x66E0, symBinAddr: 0x1000188C0, symSize: 0xB0 }
  - { offsetInCU: 0x10BFF, offset: 0x415AA, size: 0x8, addend: 0x0, symName: __ZNSt3__120__shared_ptr_emplaceI7OptionsNS_9allocatorIS1_EEE11__get_allocB7v160006Ev, symObjAddr: 0x6790, symBinAddr: 0x100018970, symSize: 0x20 }
  - { offsetInCU: 0x10C25, offset: 0x415D0, size: 0x8, addend: 0x0, symName: __ZNSt3__116allocator_traitsINS_9allocatorINS_20__shared_ptr_emplaceI7OptionsNS1_IS3_EEEEEEE10deallocateB7v160006ERS6_PS5_m, symObjAddr: 0x67B0, symBinAddr: 0x100018990, symSize: 0x30 }
  - { offsetInCU: 0x10C6A, offset: 0x41615, size: 0x8, addend: 0x0, symName: __ZNSt3__114pointer_traitsIPNS_20__shared_ptr_emplaceI7OptionsNS_9allocatorIS2_EEEEE10pointer_toB7v160006ERS5_, symObjAddr: 0x67E0, symBinAddr: 0x1000189C0, symSize: 0x10 }
  - { offsetInCU: 0x10C8E, offset: 0x41639, size: 0x8, addend: 0x0, symName: __ZNSt3__19allocatorINS_20__shared_ptr_emplaceI7OptionsNS0_IS2_EEEEE10deallocateB7v160006EPS4_m, symObjAddr: 0x67F0, symBinAddr: 0x1000189D0, symSize: 0x80 }
  - { offsetInCU: 0x10CD2, offset: 0x4167D, size: 0x8, addend: 0x0, symName: __ZNSt3__110shared_ptrI7OptionsE18__enable_weak_thisB7v160006Ez, symObjAddr: 0x6870, symBinAddr: 0x100018A50, symSize: 0x10 }
  - { offsetInCU: 0x10CF9, offset: 0x416A4, size: 0x8, addend: 0x0, symName: __ZNSt3__120__shared_ptr_emplaceI7OptionsNS_9allocatorIS1_EEE8_Storage10__get_elemEv, symObjAddr: 0x6880, symBinAddr: 0x100018A60, symSize: 0x40 }
  - { offsetInCU: 0x10D4F, offset: 0x416FA, size: 0x8, addend: 0x0, symName: __ZNSt3__117__compressed_pairINS_9allocatorI7OptionsEES2_E17__get_second_baseB7v160006EPS4_, symObjAddr: 0x68C0, symBinAddr: 0x100018AA0, symSize: 0x10 }
  - { offsetInCU: 0x10D73, offset: 0x4171E, size: 0x8, addend: 0x0, symName: __ZNSt3__118__allocation_guardINS_9allocatorINS_20__shared_ptr_emplaceI7OptionsNS1_IS3_EEEEEEED2B7v160006Ev, symObjAddr: 0x68D0, symBinAddr: 0x100018AB0, symSize: 0xE0 }
  - { offsetInCU: 0x10D9D, offset: 0x41748, size: 0x8, addend: 0x0, symName: __ZNSt3__19allocatorI7OptionsEC2B7v160006Ev, symObjAddr: 0x69B0, symBinAddr: 0x100018B90, symSize: 0x20 }
  - { offsetInCU: 0x10DC7, offset: 0x41772, size: 0x8, addend: 0x0, symName: __ZNSt3__116__non_trivial_ifILb1ENS_9allocatorI7OptionsEEEC2B7v160006Ev, symObjAddr: 0x69D0, symBinAddr: 0x100018BB0, symSize: 0x10 }
  - { offsetInCU: 0x10DF1, offset: 0x4179C, size: 0x8, addend: 0x0, symName: __ZNSt3__110shared_ptrI7OptionsEC1B7v160006EOS2_, symObjAddr: 0x69E0, symBinAddr: 0x100018BC0, symSize: 0x30 }
  - { offsetInCU: 0x10E2B, offset: 0x417D6, size: 0x8, addend: 0x0, symName: __ZNSt3__110shared_ptrI7OptionsE4swapB7v160006ERS2_, symObjAddr: 0x6A10, symBinAddr: 0x100018BF0, symSize: 0x70 }
  - { offsetInCU: 0x10E61, offset: 0x4180C, size: 0x8, addend: 0x0, symName: __ZNSt3__110shared_ptrI7OptionsEC2B7v160006EOS2_, symObjAddr: 0x6A80, symBinAddr: 0x100018C60, symSize: 0x180 }
  - { offsetInCU: 0x10E9B, offset: 0x41846, size: 0x8, addend: 0x0, symName: __ZNSt3__19allocatorI5GuideEC1B7v160006Ev, symObjAddr: 0x7070, symBinAddr: 0x100019250, symSize: 0x20 }
  - { offsetInCU: 0x10F01, offset: 0x418AC, size: 0x8, addend: 0x0, symName: __ZNSt3__118__allocation_guardINS_9allocatorINS_20__shared_ptr_emplaceI5GuideNS1_IS3_EEEEEEEC1B7v160006IS4_EET_m, symObjAddr: 0x7090, symBinAddr: 0x100019270, symSize: 0x30 }
  - { offsetInCU: 0x10F52, offset: 0x418FD, size: 0x8, addend: 0x0, symName: __ZNKSt3__118__allocation_guardINS_9allocatorINS_20__shared_ptr_emplaceI5GuideNS1_IS3_EEEEEEE5__getB7v160006Ev, symObjAddr: 0x70C0, symBinAddr: 0x1000192A0, symSize: 0x50 }
  - { offsetInCU: 0x10F78, offset: 0x41923, size: 0x8, addend: 0x0, symName: __ZNSt3__120__shared_ptr_emplaceI5GuideNS_9allocatorIS1_EEEC1B7v160006IJEEES3_DpOT_, symObjAddr: 0x7110, symBinAddr: 0x1000192F0, symSize: 0x20 }
  - { offsetInCU: 0x10FB8, offset: 0x41963, size: 0x8, addend: 0x0, symName: __ZNSt3__118__allocation_guardINS_9allocatorINS_20__shared_ptr_emplaceI5GuideNS1_IS3_EEEEEEE13__release_ptrB7v160006Ev, symObjAddr: 0x7130, symBinAddr: 0x100019310, symSize: 0xA0 }
  - { offsetInCU: 0x10FEC, offset: 0x41997, size: 0x8, addend: 0x0, symName: __ZNSt3__110shared_ptrI5GuideE27__create_with_control_blockB7v160006IS1_NS_20__shared_ptr_emplaceIS1_NS_9allocatorIS1_EEEEEES2_PT_PT0_, symObjAddr: 0x71D0, symBinAddr: 0x1000193B0, symSize: 0x160 }
  - { offsetInCU: 0x11044, offset: 0x419EF, size: 0x8, addend: 0x0, symName: __ZNSt3__120__shared_ptr_emplaceI5GuideNS_9allocatorIS1_EEE10__get_elemB7v160006Ev, symObjAddr: 0x7330, symBinAddr: 0x100019510, symSize: 0x20 }
  - { offsetInCU: 0x1106A, offset: 0x41A15, size: 0x8, addend: 0x0, symName: __ZNSt3__118__allocation_guardINS_9allocatorINS_20__shared_ptr_emplaceI5GuideNS1_IS3_EEEEEEED1B7v160006Ev, symObjAddr: 0x7350, symBinAddr: 0x100019530, symSize: 0x20 }
  - { offsetInCU: 0x11094, offset: 0x41A3F, size: 0x8, addend: 0x0, symName: __ZNSt3__118__allocation_guardINS_9allocatorINS_20__shared_ptr_emplaceI5GuideNS1_IS3_EEEEEEEC2B7v160006IS4_EET_m, symObjAddr: 0x7370, symBinAddr: 0x100019550, symSize: 0x210 }
  - { offsetInCU: 0x110EB, offset: 0x41A96, size: 0x8, addend: 0x0, symName: __ZNSt3__19allocatorINS_20__shared_ptr_emplaceI5GuideNS0_IS2_EEEEEC1B7v160006IS2_EERKNS0_IT_EE, symObjAddr: 0x7580, symBinAddr: 0x100019760, symSize: 0x30 }
  - { offsetInCU: 0x11129, offset: 0x41AD4, size: 0x8, addend: 0x0, symName: __ZNSt3__116allocator_traitsINS_9allocatorINS_20__shared_ptr_emplaceI5GuideNS1_IS3_EEEEEEE8allocateB7v160006ERS6_m, symObjAddr: 0x75B0, symBinAddr: 0x100019790, symSize: 0x30 }
  - { offsetInCU: 0x1115E, offset: 0x41B09, size: 0x8, addend: 0x0, symName: __ZNSt3__19allocatorINS_20__shared_ptr_emplaceI5GuideNS0_IS2_EEEEEC2B7v160006IS2_EERKNS0_IT_EE, symObjAddr: 0x75E0, symBinAddr: 0x1000197C0, symSize: 0x20 }
  - { offsetInCU: 0x1119C, offset: 0x41B47, size: 0x8, addend: 0x0, symName: __ZNSt3__116__non_trivial_ifILb1ENS_9allocatorINS_20__shared_ptr_emplaceI5GuideNS1_IS3_EEEEEEEC2B7v160006Ev, symObjAddr: 0x7600, symBinAddr: 0x1000197E0, symSize: 0x10 }
  - { offsetInCU: 0x111C6, offset: 0x41B71, size: 0x8, addend: 0x0, symName: __ZNSt3__19allocatorINS_20__shared_ptr_emplaceI5GuideNS0_IS2_EEEEE8allocateB7v160006Em, symObjAddr: 0x7610, symBinAddr: 0x1000197F0, symSize: 0x90 }
  - { offsetInCU: 0x11205, offset: 0x41BB0, size: 0x8, addend: 0x0, symName: __ZNSt3__116allocator_traitsINS_9allocatorINS_20__shared_ptr_emplaceI5GuideNS1_IS3_EEEEEEE8max_sizeB7v160006IS6_vEEmRKS6_, symObjAddr: 0x76A0, symBinAddr: 0x100019880, symSize: 0x20 }
  - { offsetInCU: 0x11234, offset: 0x41BDF, size: 0x8, addend: 0x0, symName: __ZNKSt3__19allocatorINS_20__shared_ptr_emplaceI5GuideNS0_IS2_EEEEE8max_sizeB7v160006Ev, symObjAddr: 0x76C0, symBinAddr: 0x1000198A0, symSize: 0x20 }
  - { offsetInCU: 0x1125A, offset: 0x41C05, size: 0x8, addend: 0x0, symName: __ZNSt3__120__shared_ptr_emplaceI5GuideNS_9allocatorIS1_EEEC2B7v160006IJEEES3_DpOT_, symObjAddr: 0x76E0, symBinAddr: 0x1000198C0, symSize: 0x260 }
  - { offsetInCU: 0x1129F, offset: 0x41C4A, size: 0x8, addend: 0x0, symName: __ZNSt3__120__shared_ptr_emplaceI5GuideNS_9allocatorIS1_EEE8_StorageC1B7v160006EOS3_, symObjAddr: 0x7940, symBinAddr: 0x100019B20, symSize: 0x30 }
  - { offsetInCU: 0x112D9, offset: 0x41C84, size: 0x8, addend: 0x0, symName: __ZNSt3__120__shared_ptr_emplaceI5GuideNS_9allocatorIS1_EEE8_StorageD1B7v160006Ev, symObjAddr: 0x7970, symBinAddr: 0x100019B50, symSize: 0x20 }
  - { offsetInCU: 0x11303, offset: 0x41CAE, size: 0x8, addend: 0x0, symName: __ZNSt3__120__shared_ptr_emplaceI5GuideNS_9allocatorIS1_EEED1Ev, symObjAddr: 0x7990, symBinAddr: 0x100019B70, symSize: 0x20 }
  - { offsetInCU: 0x11330, offset: 0x41CDB, size: 0x8, addend: 0x0, symName: __ZNSt3__120__shared_ptr_emplaceI5GuideNS_9allocatorIS1_EEED0Ev, symObjAddr: 0x79B0, symBinAddr: 0x100019B90, symSize: 0x50 }
  - { offsetInCU: 0x1135D, offset: 0x41D08, size: 0x8, addend: 0x0, symName: __ZNSt3__120__shared_ptr_emplaceI5GuideNS_9allocatorIS1_EEE16__on_zero_sharedEv, symObjAddr: 0x7A00, symBinAddr: 0x100019BE0, symSize: 0xB0 }
  - { offsetInCU: 0x11383, offset: 0x41D2E, size: 0x8, addend: 0x0, symName: __ZNSt3__120__shared_ptr_emplaceI5GuideNS_9allocatorIS1_EEE21__on_zero_shared_weakEv, symObjAddr: 0x7AB0, symBinAddr: 0x100019C90, symSize: 0x1B0 }
  - { offsetInCU: 0x113CA, offset: 0x41D75, size: 0x8, addend: 0x0, symName: __ZNSt3__120__shared_ptr_emplaceI5GuideNS_9allocatorIS1_EEE8_StorageC2B7v160006EOS3_, symObjAddr: 0x7C60, symBinAddr: 0x100019E40, symSize: 0x20 }
  - { offsetInCU: 0x11404, offset: 0x41DAF, size: 0x8, addend: 0x0, symName: __ZNSt3__120__shared_ptr_emplaceI5GuideNS_9allocatorIS1_EEE8_Storage11__get_allocEv, symObjAddr: 0x7C80, symBinAddr: 0x100019E60, symSize: 0x40 }
  - { offsetInCU: 0x1145A, offset: 0x41E05, size: 0x8, addend: 0x0, symName: __ZNSt3__117__compressed_pairINS_9allocatorI5GuideEES2_E16__get_first_baseB7v160006EPS4_, symObjAddr: 0x7CC0, symBinAddr: 0x100019EA0, symSize: 0x10 }
  - { offsetInCU: 0x1147E, offset: 0x41E29, size: 0x8, addend: 0x0, symName: __ZNSt3__120__shared_ptr_emplaceI5GuideNS_9allocatorIS1_EEE8_StorageD2B7v160006Ev, symObjAddr: 0x7CD0, symBinAddr: 0x100019EB0, symSize: 0x20 }
  - { offsetInCU: 0x114A8, offset: 0x41E53, size: 0x8, addend: 0x0, symName: __ZNSt3__120__shared_ptr_emplaceI5GuideNS_9allocatorIS1_EEED2Ev, symObjAddr: 0x7CF0, symBinAddr: 0x100019ED0, symSize: 0xB0 }
  - { offsetInCU: 0x114D5, offset: 0x41E80, size: 0x8, addend: 0x0, symName: __ZNSt3__120__shared_ptr_emplaceI5GuideNS_9allocatorIS1_EEE11__get_allocB7v160006Ev, symObjAddr: 0x7DA0, symBinAddr: 0x100019F80, symSize: 0x20 }
  - { offsetInCU: 0x114FB, offset: 0x41EA6, size: 0x8, addend: 0x0, symName: __ZNSt3__116allocator_traitsINS_9allocatorINS_20__shared_ptr_emplaceI5GuideNS1_IS3_EEEEEEE10deallocateB7v160006ERS6_PS5_m, symObjAddr: 0x7DC0, symBinAddr: 0x100019FA0, symSize: 0x30 }
  - { offsetInCU: 0x11540, offset: 0x41EEB, size: 0x8, addend: 0x0, symName: __ZNSt3__114pointer_traitsIPNS_20__shared_ptr_emplaceI5GuideNS_9allocatorIS2_EEEEE10pointer_toB7v160006ERS5_, symObjAddr: 0x7DF0, symBinAddr: 0x100019FD0, symSize: 0x10 }
  - { offsetInCU: 0x11564, offset: 0x41F0F, size: 0x8, addend: 0x0, symName: __ZNSt3__19allocatorINS_20__shared_ptr_emplaceI5GuideNS0_IS2_EEEEE10deallocateB7v160006EPS4_m, symObjAddr: 0x7E00, symBinAddr: 0x100019FE0, symSize: 0x80 }
  - { offsetInCU: 0x115A8, offset: 0x41F53, size: 0x8, addend: 0x0, symName: __ZNSt3__110shared_ptrI5GuideE18__enable_weak_thisB7v160006Ez, symObjAddr: 0x7E80, symBinAddr: 0x10001A060, symSize: 0x10 }
  - { offsetInCU: 0x115CF, offset: 0x41F7A, size: 0x8, addend: 0x0, symName: __ZNSt3__120__shared_ptr_emplaceI5GuideNS_9allocatorIS1_EEE8_Storage10__get_elemEv, symObjAddr: 0x7E90, symBinAddr: 0x10001A070, symSize: 0x40 }
  - { offsetInCU: 0x11625, offset: 0x41FD0, size: 0x8, addend: 0x0, symName: __ZNSt3__117__compressed_pairINS_9allocatorI5GuideEES2_E17__get_second_baseB7v160006EPS4_, symObjAddr: 0x7ED0, symBinAddr: 0x10001A0B0, symSize: 0x10 }
  - { offsetInCU: 0x11649, offset: 0x41FF4, size: 0x8, addend: 0x0, symName: __ZNSt3__118__allocation_guardINS_9allocatorINS_20__shared_ptr_emplaceI5GuideNS1_IS3_EEEEEEED2B7v160006Ev, symObjAddr: 0x7EE0, symBinAddr: 0x10001A0C0, symSize: 0xE0 }
  - { offsetInCU: 0x11673, offset: 0x4201E, size: 0x8, addend: 0x0, symName: __ZNSt3__19allocatorI5GuideEC2B7v160006Ev, symObjAddr: 0x7FC0, symBinAddr: 0x10001A1A0, symSize: 0x20 }
  - { offsetInCU: 0x1169D, offset: 0x42048, size: 0x8, addend: 0x0, symName: __ZNSt3__116__non_trivial_ifILb1ENS_9allocatorI5GuideEEEC2B7v160006Ev, symObjAddr: 0x7FE0, symBinAddr: 0x10001A1C0, symSize: 0x10 }
  - { offsetInCU: 0x116C7, offset: 0x42072, size: 0x8, addend: 0x0, symName: __ZNSt3__110shared_ptrI5GuideEC1B7v160006EOS2_, symObjAddr: 0x7FF0, symBinAddr: 0x10001A1D0, symSize: 0x30 }
  - { offsetInCU: 0x11701, offset: 0x420AC, size: 0x8, addend: 0x0, symName: __ZNSt3__110shared_ptrI5GuideE4swapB7v160006ERS2_, symObjAddr: 0x8020, symBinAddr: 0x10001A200, symSize: 0x70 }
  - { offsetInCU: 0x11737, offset: 0x420E2, size: 0x8, addend: 0x0, symName: __ZNSt3__110shared_ptrI5GuideEC2B7v160006EOS2_, symObjAddr: 0x8090, symBinAddr: 0x10001A270, symSize: 0x180 }
  - { offsetInCU: 0x3B, offset: 0x42228, size: 0x8, addend: 0x0, symName: _.str, symObjAddr: 0x56C0, symBinAddr: 0x10002EBE0, symSize: 0x0 }
  - { offsetInCU: 0x6B, offset: 0x42258, size: 0x8, addend: 0x0, symName: _.str.1, symObjAddr: 0x56E0, symBinAddr: 0x10002EC00, symSize: 0x0 }
  - { offsetInCU: 0x88, offset: 0x42275, size: 0x8, addend: 0x0, symName: _.str.2, symObjAddr: 0x5700, symBinAddr: 0x10002EC20, symSize: 0x0 }
  - { offsetInCU: 0xA5, offset: 0x42292, size: 0x8, addend: 0x0, symName: _.str.3, symObjAddr: 0x5720, symBinAddr: 0x10002EC40, symSize: 0x0 }
  - { offsetInCU: 0xB6, offset: 0x422A3, size: 0x8, addend: 0x0, symName: _.str.4, symObjAddr: 0x5740, symBinAddr: 0x10002EC60, symSize: 0x0 }
  - { offsetInCU: 0xAA4C, offset: 0x4CC39, size: 0x8, addend: 0x0, symName: __ZNSt3__13minB7v160006IfEERKT_S3_S3_, symObjAddr: 0x3310, symBinAddr: 0x10001C6B0, symSize: 0x30 }
  - { offsetInCU: 0xAA92, offset: 0x4CC7F, size: 0x8, addend: 0x0, symName: __ZNSt3__13maxB7v160006IfEERKT_S3_S3_, symObjAddr: 0x3340, symBinAddr: 0x10001C6E0, symSize: 0x30 }
  - { offsetInCU: 0xAAD8, offset: 0x4CCC5, size: 0x8, addend: 0x0, symName: __ZNSt3__13minB7v160006IfNS_6__lessIffEEEERKT_S5_S5_T0_, symObjAddr: 0x3370, symBinAddr: 0x10001C710, symSize: 0x170 }
  - { offsetInCU: 0xAB77, offset: 0x4CD64, size: 0x8, addend: 0x0, symName: __ZNSt3__13maxB7v160006IfNS_6__lessIffEEEERKT_S5_S5_T0_, symObjAddr: 0x35B0, symBinAddr: 0x10001C950, symSize: 0x170 }
  - { offsetInCU: 0xD1D9, offset: 0x4F3C6, size: 0x8, addend: 0x0, symName: __ZN6ButtonC2EffffPN2sf4FontENSt3__112basic_stringIcNS3_11char_traitsIcEENS3_9allocatorIcEEEE, symObjAddr: 0x0, symBinAddr: 0x10001A570, symSize: 0xD90 }
  - { offsetInCU: 0xD267, offset: 0x4F454, size: 0x8, addend: 0x0, symName: __ZN2sf7Vector2IfEC1Eff, symObjAddr: 0xD90, symBinAddr: 0x10001B300, symSize: 0x30 }
  - { offsetInCU: 0xD2B1, offset: 0x4F49E, size: 0x8, addend: 0x0, symName: __ZN2sf14RectangleShapeD1Ev, symObjAddr: 0xE10, symBinAddr: 0x10001B330, symSize: 0x20 }
  - { offsetInCU: 0xD2DD, offset: 0x4F4CA, size: 0x8, addend: 0x0, symName: __ZN6ButtonC1EffffPN2sf4FontENSt3__112basic_stringIcNS3_11char_traitsIcEENS3_9allocatorIcEEEE, symObjAddr: 0xE30, symBinAddr: 0x10001B350, symSize: 0x50 }
  - { offsetInCU: 0xD364, offset: 0x4F551, size: 0x8, addend: 0x0, symName: __ZN6ButtonD2Ev, symObjAddr: 0xE80, symBinAddr: 0x10001B3A0, symSize: 0x80 }
  - { offsetInCU: 0xD390, offset: 0x4F57D, size: 0x8, addend: 0x0, symName: __ZN6ButtonD1Ev, symObjAddr: 0xF00, symBinAddr: 0x10001B420, symSize: 0x20 }
  - { offsetInCU: 0xD3BC, offset: 0x4F5A9, size: 0x8, addend: 0x0, symName: __ZNK6Button9isPressedEv, symObjAddr: 0xF20, symBinAddr: 0x10001B440, symSize: 0x80 }
  - { offsetInCU: 0xD3E4, offset: 0x4F5D1, size: 0x8, addend: 0x0, symName: __ZN6Button6updateEN2sf7Vector2IfEE, symObjAddr: 0xFA0, symBinAddr: 0x10001B4C0, symSize: 0x6A0 }
  - { offsetInCU: 0xD420, offset: 0x4F60D, size: 0x8, addend: 0x0, symName: __ZNK2sf4RectIfE8containsERKNS_7Vector2IfEE, symObjAddr: 0x1640, symBinAddr: 0x10001BB60, symSize: 0xE0 }
  - { offsetInCU: 0xD457, offset: 0x4F644, size: 0x8, addend: 0x0, symName: __ZN6Button6renderEPN2sf12RenderTargetE, symObjAddr: 0x1830, symBinAddr: 0x10001BC40, symSize: 0x50 }
  - { offsetInCU: 0xD48E, offset: 0x4F67B, size: 0x8, addend: 0x0, symName: __ZN2sf14RectangleShapeD2Ev, symObjAddr: 0x28F0, symBinAddr: 0x10001BC90, symSize: 0x20 }
  - { offsetInCU: 0xD4BA, offset: 0x4F6A7, size: 0x8, addend: 0x0, symName: __ZThn8_N2sf14RectangleShapeD1Ev, symObjAddr: 0x2910, symBinAddr: 0x10001BCB0, symSize: 0x20 }
  - { offsetInCU: 0xD4D0, offset: 0x4F6BD, size: 0x8, addend: 0x0, symName: __ZN2sf7Vector2IfEC2Eff, symObjAddr: 0x2930, symBinAddr: 0x10001BCD0, symSize: 0xE0 }
  - { offsetInCU: 0xD51A, offset: 0x4F707, size: 0x8, addend: 0x0, symName: __ZNK2sf4RectIfE8containsEff, symObjAddr: 0x2A10, symBinAddr: 0x10001BDB0, symSize: 0x900 }
  - { offsetInCU: 0xD5AE, offset: 0x4F79B, size: 0x8, addend: 0x0, symName: __ZNKSt3__16__lessIffEclB7v160006ERKfS3_, symObjAddr: 0x34E0, symBinAddr: 0x10001C880, symSize: 0xD0 }
  - { offsetInCU: 0x3B, offset: 0x4F837, size: 0x8, addend: 0x0, symName: _.str, symObjAddr: 0x5160, symBinAddr: 0x10002EC80, symSize: 0x0 }
  - { offsetInCU: 0x6B, offset: 0x4F867, size: 0x8, addend: 0x0, symName: _.str.1, symObjAddr: 0x51C0, symBinAddr: 0x10002ECE0, symSize: 0x0 }
  - { offsetInCU: 0x88, offset: 0x4F884, size: 0x8, addend: 0x0, symName: _.str.2, symObjAddr: 0x5200, symBinAddr: 0x10002ED20, symSize: 0x0 }
  - { offsetInCU: 0xA5, offset: 0x4F8A1, size: 0x8, addend: 0x0, symName: _.str.3, symObjAddr: 0x5240, symBinAddr: 0x10002ED60, symSize: 0x0 }
  - { offsetInCU: 0xC2, offset: 0x4F8BE, size: 0x8, addend: 0x0, symName: _.str.4, symObjAddr: 0x5260, symBinAddr: 0x10002ED80, symSize: 0x0 }
  - { offsetInCU: 0x45E0, offset: 0x53DDC, size: 0x8, addend: 0x0, symName: __ZN13ClickableIconC2EiiffNSt3__112basic_stringIcNS0_11char_traitsIcEENS0_9allocatorIcEEEE, symObjAddr: 0x0, symBinAddr: 0x10001CB40, symSize: 0x570 }
  - { offsetInCU: 0x465E, offset: 0x53E5A, size: 0x8, addend: 0x0, symName: __ZN2sf4RectIiEC1Ev, symObjAddr: 0x570, symBinAddr: 0x10001D0B0, symSize: 0x20 }
  - { offsetInCU: 0x468A, offset: 0x53E86, size: 0x8, addend: 0x0, symName: __ZN13ClickableIconC1EiiffNSt3__112basic_stringIcNS0_11char_traitsIcEENS0_9allocatorIcEEEE, symObjAddr: 0x6B0, symBinAddr: 0x10001D0D0, symSize: 0x40 }
  - { offsetInCU: 0x4702, offset: 0x53EFE, size: 0x8, addend: 0x0, symName: __ZN13ClickableIconD2Ev, symObjAddr: 0x6F0, symBinAddr: 0x10001D110, symSize: 0x160 }
  - { offsetInCU: 0x472E, offset: 0x53F2A, size: 0x8, addend: 0x0, symName: __ZN13ClickableIconD1Ev, symObjAddr: 0x850, symBinAddr: 0x10001D270, symSize: 0x20 }
  - { offsetInCU: 0x475A, offset: 0x53F56, size: 0x8, addend: 0x0, symName: __ZN13ClickableIconD0Ev, symObjAddr: 0x870, symBinAddr: 0x10001D290, symSize: 0x50 }
  - { offsetInCU: 0x4786, offset: 0x53F82, size: 0x8, addend: 0x0, symName: __ZNK13ClickableIcon10getClickedEv, symObjAddr: 0x8C0, symBinAddr: 0x10001D2E0, symSize: 0x70 }
  - { offsetInCU: 0x47AE, offset: 0x53FAA, size: 0x8, addend: 0x0, symName: __ZN13ClickableIcon9isClickedEN2sf7Vector2IfEE, symObjAddr: 0x930, symBinAddr: 0x10001D350, symSize: 0x550 }
  - { offsetInCU: 0x4808, offset: 0x54004, size: 0x8, addend: 0x0, symName: __ZN13ClickableIcon11onceClickedEN2sf7Vector2IfEEPNS0_12RenderWindowE, symObjAddr: 0xF60, symBinAddr: 0x10001D8A0, symSize: 0xD90 }
  - { offsetInCU: 0x4872, offset: 0x5406E, size: 0x8, addend: 0x0, symName: __ZN13ClickableIcon10resetClickEv, symObjAddr: 0x1CF0, symBinAddr: 0x10001E630, symSize: 0x70 }
  - { offsetInCU: 0x489A, offset: 0x54096, size: 0x8, addend: 0x0, symName: __ZNK13ClickableIcon10isClicked2Ev, symObjAddr: 0x1D60, symBinAddr: 0x10001E6A0, symSize: 0x90 }
  - { offsetInCU: 0x48C2, offset: 0x540BE, size: 0x8, addend: 0x0, symName: __ZN13ClickableIcon6updateEN2sf7Vector2IfEE, symObjAddr: 0x1DF0, symBinAddr: 0x10001E730, symSize: 0x540 }
  - { offsetInCU: 0x48FE, offset: 0x540FA, size: 0x8, addend: 0x0, symName: __ZN13ClickableIcon6renderEPN2sf12RenderTargetE, symObjAddr: 0x2330, symBinAddr: 0x10001EC70, symSize: 0x90 }
  - { offsetInCU: 0x4935, offset: 0x54131, size: 0x8, addend: 0x0, symName: __ZN2sf4RectIiEC2Ev, symObjAddr: 0x23C0, symBinAddr: 0x10001ED00, symSize: 0x170 }
  - { offsetInCU: 0x3B, offset: 0x541A6, size: 0x8, addend: 0x0, symName: _.str, symObjAddr: 0xC2C0, symBinAddr: 0x10002EDC0, symSize: 0x0 }
  - { offsetInCU: 0x6B, offset: 0x541D6, size: 0x8, addend: 0x0, symName: _.str.1, symObjAddr: 0xC300, symBinAddr: 0x10002EE00, symSize: 0x0 }
  - { offsetInCU: 0x7C, offset: 0x541E7, size: 0x8, addend: 0x0, symName: _.str.2, symObjAddr: 0xC340, symBinAddr: 0x10002EE40, symSize: 0x0 }
  - { offsetInCU: 0x8D, offset: 0x541F8, size: 0x8, addend: 0x0, symName: _.str.3, symObjAddr: 0xC380, symBinAddr: 0x10002EE80, symSize: 0x0 }
  - { offsetInCU: 0xAA, offset: 0x54215, size: 0x8, addend: 0x0, symName: _.str.4, symObjAddr: 0xC3E0, symBinAddr: 0x10002EEE0, symSize: 0x0 }
  - { offsetInCU: 0xC7, offset: 0x54232, size: 0x8, addend: 0x0, symName: _.str.5, symObjAddr: 0xC440, symBinAddr: 0x10002EF40, symSize: 0x0 }
  - { offsetInCU: 0xE4, offset: 0x5424F, size: 0x8, addend: 0x0, symName: _.str.6, symObjAddr: 0xC480, symBinAddr: 0x10002EF80, symSize: 0x0 }
  - { offsetInCU: 0x101, offset: 0x5426C, size: 0x8, addend: 0x0, symName: _.str.7, symObjAddr: 0xC4C0, symBinAddr: 0x10002EFC0, symSize: 0x0 }
  - { offsetInCU: 0x11F, offset: 0x5428A, size: 0x8, addend: 0x0, symName: _.str.8, symObjAddr: 0xC500, symBinAddr: 0x10002F000, symSize: 0x0 }
  - { offsetInCU: 0x78DC, offset: 0x5BA47, size: 0x8, addend: 0x0, symName: __ZNSt3__17advanceB7v160006IPN2sf6VertexEmmvEEvRT_T0_, symObjAddr: 0x2E70, symBinAddr: 0x100021970, symSize: 0x50 }
  - { offsetInCU: 0xB5FA, offset: 0x5F765, size: 0x8, addend: 0x0, symName: __ZNSt3__18distanceB7v160006IPN2sf6VertexEEENS_15iterator_traitsIT_E15difference_typeES5_S5_, symObjAddr: 0x2D00, symBinAddr: 0x100021940, symSize: 0x30 }
  - { offsetInCU: 0xB640, offset: 0x5F7AB, size: 0x8, addend: 0x0, symName: __ZNSt3__14copyB7v160006IPN2sf6VertexES3_EET0_T_S5_S4_, symObjAddr: 0x2EC0, symBinAddr: 0x1000219C0, symSize: 0x210 }
  - { offsetInCU: 0xB6A1, offset: 0x5F80C, size: 0x8, addend: 0x0, symName: __ZNSt3__125__debug_db_invalidate_allB7v160006INS_6vectorIN2sf6VertexENS_9allocatorIS3_EEEEEEvPT_, symObjAddr: 0x3CD0, symBinAddr: 0x1000227D0, symSize: 0x10 }
  - { offsetInCU: 0xB6D4, offset: 0x5F83F, size: 0x8, addend: 0x0, symName: __ZNSt3__110__distanceB7v160006IPN2sf6VertexEEENS_15iterator_traitsIT_E15difference_typeES5_S5_NS_26random_access_iterator_tagE, symObjAddr: 0x3CE0, symBinAddr: 0x1000227E0, symSize: 0x30 }
  - { offsetInCU: 0xB725, offset: 0x5F890, size: 0x8, addend: 0x0, symName: __ZNSt3__121__convert_to_integralB7v160006Em, symObjAddr: 0x3D60, symBinAddr: 0x100022810, symSize: 0x10 }
  - { offsetInCU: 0xB753, offset: 0x5F8BE, size: 0x8, addend: 0x0, symName: __ZNSt3__19__advanceB7v160006IPN2sf6VertexEEEvRT_NS_15iterator_traitsIS4_E15difference_typeENS_26random_access_iterator_tagE, symObjAddr: 0x3D70, symBinAddr: 0x100022820, symSize: 0x60 }
  - { offsetInCU: 0xB7A0, offset: 0x5F90B, size: 0x8, addend: 0x0, symName: __ZNSt3__16__copyB7v160006INS_17_ClassicAlgPolicyEPN2sf6VertexES4_S4_EENS_4pairIT0_T2_EES6_T1_S7_, symObjAddr: 0x3DD0, symBinAddr: 0x100022880, symSize: 0x210 }
  - { offsetInCU: 0xB813, offset: 0x5F97E, size: 0x8, addend: 0x0, symName: __ZNSt3__123__dispatch_copy_or_moveB7v160006INS_17_ClassicAlgPolicyENS_11__copy_loopIS1_EENS_14__copy_trivialEPN2sf6VertexES7_S7_EENS_4pairIT2_T4_EES9_T3_SA_, symObjAddr: 0x3FE0, symBinAddr: 0x100022A90, symSize: 0x230 }
  - { offsetInCU: 0xB898, offset: 0x5FA03, size: 0x8, addend: 0x0, symName: __ZNSt3__121__unwrap_and_dispatchB7v160006INS_10__overloadINS_11__copy_loopINS_17_ClassicAlgPolicyEEENS_14__copy_trivialEEEPN2sf6VertexES9_S9_Li0EEENS_4pairIT0_T2_EESB_T1_SC_, symObjAddr: 0x4220, symBinAddr: 0x100022CC0, symSize: 0x650 }
  - { offsetInCU: 0xB936, offset: 0x5FAA1, size: 0x8, addend: 0x0, symName: __ZNSt3__114__unwrap_rangeB7v160006IPN2sf6VertexES3_EENS_4pairIT0_S5_EET_S7_, symObjAddr: 0x4870, symBinAddr: 0x100023310, symSize: 0x300 }
  - { offsetInCU: 0xBA7B, offset: 0x5FBE6, size: 0x8, addend: 0x0, symName: __ZNSt3__113__unwrap_iterB7v160006IPN2sf6VertexENS_18__unwrap_iter_implIS3_Lb1EEELi0EEEDTclsrT0_8__unwrapclsr3stdE7declvalIT_EEEES7_, symObjAddr: 0x4D80, symBinAddr: 0x100023820, symSize: 0x20 }
  - { offsetInCU: 0xBAC2, offset: 0x5FC2D, size: 0x8, addend: 0x0, symName: __ZNSt3__19make_pairB7v160006IPN2sf6VertexES3_EENS_4pairINS_18__unwrap_ref_decayIT_E4typeENS5_IT0_E4typeEEEOS6_OS9_, symObjAddr: 0x4DA0, symBinAddr: 0x100023840, symSize: 0x190 }
  - { offsetInCU: 0xBB16, offset: 0x5FC81, size: 0x8, addend: 0x0, symName: __ZNSt3__114__rewrap_rangeB7v160006IPN2sf6VertexES3_EET_S4_T0_, symObjAddr: 0x4F30, symBinAddr: 0x1000239D0, symSize: 0x30 }
  - { offsetInCU: 0xBB65, offset: 0x5FCD0, size: 0x8, addend: 0x0, symName: __ZNSt3__113__rewrap_iterB7v160006IPN2sf6VertexES3_NS_18__unwrap_iter_implIS3_Lb1EEEEET_S6_T0_, symObjAddr: 0x4F60, symBinAddr: 0x100023A00, symSize: 0x60 }
  - { offsetInCU: 0xBBBD, offset: 0x5FD28, size: 0x8, addend: 0x0, symName: __ZNSt3__119__copy_trivial_implB7v160006IN2sf6VertexES2_EENS_4pairIPT_PT0_EES5_S5_S7_, symObjAddr: 0x4FC0, symBinAddr: 0x100023A60, symSize: 0x350 }
  - { offsetInCU: 0xBC30, offset: 0x5FD9B, size: 0x8, addend: 0x0, symName: __ZNSt3__19make_pairB7v160006IRPN2sf6VertexES3_EENS_4pairINS_18__unwrap_ref_decayIT_E4typeENS6_IT0_E4typeEEEOS7_OSA_, symObjAddr: 0x5310, symBinAddr: 0x100023DB0, symSize: 0x190 }
  - { offsetInCU: 0xBCD7, offset: 0x5FE42, size: 0x8, addend: 0x0, symName: __ZNSt3__130__uninitialized_allocator_copyB7v160006INS_9allocatorIN2sf6VertexEEEPS3_S5_S5_EET2_RT_T0_T1_S6_, symObjAddr: 0x56A0, symBinAddr: 0x100024130, symSize: 0x560 }
  - { offsetInCU: 0xBD8A, offset: 0x5FEF5, size: 0x8, addend: 0x0, symName: __ZNSt3__122__make_exception_guardB7v160006INS_29_AllocatorDestroyRangeReverseINS_9allocatorIN2sf6VertexEEEPS4_EEEENS_28__exception_guard_exceptionsIT_EES9_, symObjAddr: 0x5F60, symBinAddr: 0x100024930, symSize: 0x2A0 }
  - { offsetInCU: 0xBDC5, offset: 0x5FF30, size: 0x8, addend: 0x0, symName: __ZNSt3__119__allocator_destroyB7v160006INS_9allocatorIN2sf6VertexEEENS_16reverse_iteratorIPS3_EES7_EEvRT_T0_T1_, symObjAddr: 0x6C50, symBinAddr: 0x100025620, symSize: 0x2B0 }
  - { offsetInCU: 0xBE35, offset: 0x5FFA0, size: 0x8, addend: 0x0, symName: __ZNSt3__1neB7v160006IPN2sf6VertexES3_EEbRKNS_16reverse_iteratorIT_EERKNS4_IT0_EE, symObjAddr: 0x6F30, symBinAddr: 0x100025900, symSize: 0x40 }
  - { offsetInCU: 0xBE84, offset: 0x5FFEF, size: 0x8, addend: 0x0, symName: __ZNSt3__112__to_addressB7v160006INS_16reverse_iteratorIPN2sf6VertexEEEvEENS_5decayIDTclsr19__to_address_helperIT_EE6__callclsr3stdE7declvalIRKS7_EEEEE4typeES9_, symObjAddr: 0x6FA0, symBinAddr: 0x100025940, symSize: 0x20 }
  - { offsetInCU: 0xBEE6, offset: 0x60051, size: 0x8, addend: 0x0, symName: __ZNSt3__119__allocate_at_leastB7v160006INS_9allocatorIN2sf6VertexEEEEENS_19__allocation_resultINS_16allocator_traitsIT_E7pointerEEERS7_m, symObjAddr: 0x7B00, symBinAddr: 0x1000261F0, symSize: 0x210 }
  - { offsetInCU: 0xBF2E, offset: 0x60099, size: 0x8, addend: 0x0, symName: __ZNSt3__13minB7v160006ImEERKT_S3_S3_, symObjAddr: 0x7DE0, symBinAddr: 0x1000264D0, symSize: 0x30 }
  - { offsetInCU: 0xC17F, offset: 0x602EA, size: 0x8, addend: 0x0, symName: __ZNSt3__13minB7v160006ImNS_6__lessImmEEEERKT_S5_S5_T0_, symObjAddr: 0x7E60, symBinAddr: 0x100026550, symSize: 0x170 }
  - { offsetInCU: 0xC1E3, offset: 0x6034E, size: 0x8, addend: 0x0, symName: __ZNSt3__120__throw_length_errorB7v160006EPKc, symObjAddr: 0x80D0, symBinAddr: 0x100026720, symSize: 0x70 }
  - { offsetInCU: 0xEC4E, offset: 0x62DB9, size: 0x8, addend: 0x0, symName: __ZN4BaseC2ENSt3__112basic_stringIcNS0_11char_traitsIcEENS0_9allocatorIcEEEEiiff, symObjAddr: 0x0, symBinAddr: 0x10001EEF0, symSize: 0x1100 }
  - { offsetInCU: 0xED09, offset: 0x62E74, size: 0x8, addend: 0x0, symName: __ZN2sf4TextaSERKS0_, symObjAddr: 0x1120, symBinAddr: 0x10001FFF0, symSize: 0x100 }
  - { offsetInCU: 0xED3A, offset: 0x62EA5, size: 0x8, addend: 0x0, symName: __ZN4Base13set_up_spriteEiiffRN2sf6SpriteERNS0_7TextureENSt3__112basic_stringIcNS5_11char_traitsIcEENS5_9allocatorIcEEEE, symObjAddr: 0x1250, symBinAddr: 0x1000200F0, symSize: 0x230 }
  - { offsetInCU: 0xEDD9, offset: 0x62F44, size: 0x8, addend: 0x0, symName: __ZN4Base12initBaseFontERN2sf4FontENSt3__112basic_stringIcNS3_11char_traitsIcEENS3_9allocatorIcEEEE, symObjAddr: 0x14B0, symBinAddr: 0x100020320, symSize: 0x60 }
  - { offsetInCU: 0xEE20, offset: 0x62F8B, size: 0x8, addend: 0x0, symName: __ZN4Base11setBaseTextERN2sf4TextERNS0_4FontENSt3__112basic_stringIcNS5_11char_traitsIcEENS5_9allocatorIcEEEENS0_5ColorEsff, symObjAddr: 0x1510, symBinAddr: 0x100020380, symSize: 0x4C0 }
  - { offsetInCU: 0xEEBD, offset: 0x63028, size: 0x8, addend: 0x0, symName: __ZN2sf6SpriteD1Ev, symObjAddr: 0x19D0, symBinAddr: 0x100020840, symSize: 0x20 }
  - { offsetInCU: 0xEEE9, offset: 0x63054, size: 0x8, addend: 0x0, symName: __ZN4BaseC1ENSt3__112basic_stringIcNS0_11char_traitsIcEENS0_9allocatorIcEEEEiiff, symObjAddr: 0x19F0, symBinAddr: 0x100020860, symSize: 0x40 }
  - { offsetInCU: 0xEF61, offset: 0x630CC, size: 0x8, addend: 0x0, symName: __ZN4BaseD2Ev, symObjAddr: 0x1B80, symBinAddr: 0x1000208A0, symSize: 0x1B0 }
  - { offsetInCU: 0xEF8D, offset: 0x630F8, size: 0x8, addend: 0x0, symName: __ZN4BaseD1Ev, symObjAddr: 0x1D30, symBinAddr: 0x100020A50, symSize: 0x20 }
  - { offsetInCU: 0xEFB9, offset: 0x63124, size: 0x8, addend: 0x0, symName: __ZN4BaseD0Ev, symObjAddr: 0x1D50, symBinAddr: 0x100020A70, symSize: 0x50 }
  - { offsetInCU: 0xEFE5, offset: 0x63150, size: 0x8, addend: 0x0, symName: __ZN4Base11closeWindowEv, symObjAddr: 0x1DA0, symBinAddr: 0x100020AC0, symSize: 0xC0 }
  - { offsetInCU: 0xF00D, offset: 0x63178, size: 0x8, addend: 0x0, symName: __ZN4Base7getQuitEv, symObjAddr: 0x1E60, symBinAddr: 0x100020B80, symSize: 0x70 }
  - { offsetInCU: 0xF035, offset: 0x631A0, size: 0x8, addend: 0x0, symName: __ZN4Base8endStateEv, symObjAddr: 0x1ED0, symBinAddr: 0x100020BF0, symSize: 0x70 }
  - { offsetInCU: 0xF05D, offset: 0x631C8, size: 0x8, addend: 0x0, symName: __ZN4Base6updateEN2sf7Vector2IfEE, symObjAddr: 0x1F40, symBinAddr: 0x100020C60, symSize: 0x4D0 }
  - { offsetInCU: 0xF099, offset: 0x63204, size: 0x8, addend: 0x0, symName: __ZN4Base6renderEPN2sf12RenderTargetE, symObjAddr: 0x24F0, symBinAddr: 0x100021130, symSize: 0x60 }
  - { offsetInCU: 0xF0D5, offset: 0x63240, size: 0x8, addend: 0x0, symName: __ZN2sf8DrawableaSERKS0_, symObjAddr: 0x2550, symBinAddr: 0x100021190, symSize: 0x20 }
  - { offsetInCU: 0xF110, offset: 0x6327B, size: 0x8, addend: 0x0, symName: __ZN2sf13TransformableaSERKS0_, symObjAddr: 0x2570, symBinAddr: 0x1000211B0, symSize: 0x1C0 }
  - { offsetInCU: 0xF14B, offset: 0x632B6, size: 0x8, addend: 0x0, symName: __ZN2sf11VertexArrayaSERKS0_, symObjAddr: 0x2730, symBinAddr: 0x100021370, symSize: 0xF0 }
  - { offsetInCU: 0xF17C, offset: 0x632E7, size: 0x8, addend: 0x0, symName: __ZNSt3__16vectorIN2sf6VertexENS_9allocatorIS2_EEEaSB7v160006ERKS5_, symObjAddr: 0x2820, symBinAddr: 0x100021460, symSize: 0xC0 }
  - { offsetInCU: 0xF1B4, offset: 0x6331F, size: 0x8, addend: 0x0, symName: __ZNSt3__16vectorIN2sf6VertexENS_9allocatorIS2_EEE19__copy_assign_allocB7v160006ERKS5_, symObjAddr: 0x28E0, symBinAddr: 0x100021520, symSize: 0x30 }
  - { offsetInCU: 0xF1EA, offset: 0x63355, size: 0x8, addend: 0x0, symName: __ZNSt3__16vectorIN2sf6VertexENS_9allocatorIS2_EEE6assignIPS2_Li0EEEvT_S8_, symObjAddr: 0x2910, symBinAddr: 0x100021550, symSize: 0x3E0 }
  - { offsetInCU: 0xF293, offset: 0x633FE, size: 0x8, addend: 0x0, symName: __ZNSt3__16vectorIN2sf6VertexENS_9allocatorIS2_EEE19__copy_assign_allocB7v160006ERKS5_NS_17integral_constantIbLb0EEE, symObjAddr: 0x2CF0, symBinAddr: 0x100021930, symSize: 0x10 }
  - { offsetInCU: 0xF2D1, offset: 0x6343C, size: 0x8, addend: 0x0, symName: __ZNSt3__16vectorIN2sf6VertexENS_9allocatorIS2_EEE18__construct_at_endIPS2_Li0EEEvT_S8_m, symObjAddr: 0x30D0, symBinAddr: 0x100021BD0, symSize: 0x320 }
  - { offsetInCU: 0xF351, offset: 0x634BC, size: 0x8, addend: 0x0, symName: __ZNSt3__16vectorIN2sf6VertexENS_9allocatorIS2_EEE17__destruct_at_endB7v160006EPS2_, symObjAddr: 0x33F0, symBinAddr: 0x100021EF0, symSize: 0x90 }
  - { offsetInCU: 0xF397, offset: 0x63502, size: 0x8, addend: 0x0, symName: __ZNSt3__16vectorIN2sf6VertexENS_9allocatorIS2_EEE13__vdeallocateEv, symObjAddr: 0x3480, symBinAddr: 0x100021F80, symSize: 0x160 }
  - { offsetInCU: 0xF3BF, offset: 0x6352A, size: 0x8, addend: 0x0, symName: __ZNSt3__16vectorIN2sf6VertexENS_9allocatorIS2_EEE11__vallocateB7v160006Em, symObjAddr: 0x35E0, symBinAddr: 0x1000220E0, symSize: 0x400 }
  - { offsetInCU: 0xF40B, offset: 0x63576, size: 0x8, addend: 0x0, symName: __ZNKSt3__16vectorIN2sf6VertexENS_9allocatorIS2_EEE11__recommendB7v160006Em, symObjAddr: 0x39E0, symBinAddr: 0x1000224E0, symSize: 0x2F0 }
  - { offsetInCU: 0xF48D, offset: 0x635F8, size: 0x8, addend: 0x0, symName: __ZNKSt3__114__copy_trivialclB7v160006IN2sf6VertexES3_Li0EEENS_4pairIPT_PT0_EES6_S6_S8_, symObjAddr: 0x4B70, symBinAddr: 0x100023610, symSize: 0x210 }
  - { offsetInCU: 0xF4FD, offset: 0x63668, size: 0x8, addend: 0x0, symName: __ZNSt3__14pairIPN2sf6VertexES3_EC1B7v160006ERKS3_S6_, symObjAddr: 0x54A0, symBinAddr: 0x100023F40, symSize: 0x30 }
  - { offsetInCU: 0xF545, offset: 0x636B0, size: 0x8, addend: 0x0, symName: __ZNSt3__14pairIPN2sf6VertexES3_EC2B7v160006ERKS3_S6_, symObjAddr: 0x54D0, symBinAddr: 0x100023F70, symSize: 0x110 }
  - { offsetInCU: 0xF58D, offset: 0x636F8, size: 0x8, addend: 0x0, symName: __ZNSt3__118__unwrap_iter_implIPN2sf6VertexELb1EE8__unwrapB7v160006ES3_, symObjAddr: 0x55E0, symBinAddr: 0x100024080, symSize: 0x20 }
  - { offsetInCU: 0xF5B1, offset: 0x6371C, size: 0x8, addend: 0x0, symName: __ZNSt3__118__unwrap_iter_implIPN2sf6VertexELb1EE8__rewrapB7v160006ES3_S3_, symObjAddr: 0x5610, symBinAddr: 0x1000240A0, symSize: 0x60 }
  - { offsetInCU: 0xF5FD, offset: 0x63768, size: 0x8, addend: 0x0, symName: __ZNSt3__16vectorIN2sf6VertexENS_9allocatorIS2_EEE21_ConstructTransactionC1B7v160006ERS5_m, symObjAddr: 0x5670, symBinAddr: 0x100024100, symSize: 0x30 }
  - { offsetInCU: 0xF647, offset: 0x637B2, size: 0x8, addend: 0x0, symName: __ZNSt3__16vectorIN2sf6VertexENS_9allocatorIS2_EEE21_ConstructTransactionD1B7v160006Ev, symObjAddr: 0x5C20, symBinAddr: 0x100024690, symSize: 0x20 }
  - { offsetInCU: 0xF671, offset: 0x637DC, size: 0x8, addend: 0x0, symName: __ZNSt3__16vectorIN2sf6VertexENS_9allocatorIS2_EEE21_ConstructTransactionC2B7v160006ERS5_m, symObjAddr: 0x5C40, symBinAddr: 0x1000246B0, symSize: 0x190 }
  - { offsetInCU: 0xF6BB, offset: 0x63826, size: 0x8, addend: 0x0, symName: __ZNKSt3__16vectorIN2sf6VertexENS_9allocatorIS2_EEE19__annotate_increaseB7v160006Em, symObjAddr: 0x5DD0, symBinAddr: 0x100024840, symSize: 0xF0 }
  - { offsetInCU: 0xF6F1, offset: 0x6385C, size: 0x8, addend: 0x0, symName: __ZNSt3__129_AllocatorDestroyRangeReverseINS_9allocatorIN2sf6VertexEEEPS3_EC1B7v160006ERS4_RS5_S8_, symObjAddr: 0x6200, symBinAddr: 0x100024BD0, symSize: 0x40 }
  - { offsetInCU: 0xF74B, offset: 0x638B6, size: 0x8, addend: 0x0, symName: __ZNSt3__116allocator_traitsINS_9allocatorIN2sf6VertexEEEE9constructB7v160006IS3_JRS3_EvEEvRS4_PT_DpOT0_, symObjAddr: 0x6240, symBinAddr: 0x100024C10, symSize: 0x30 }
  - { offsetInCU: 0xF7A5, offset: 0x63910, size: 0x8, addend: 0x0, symName: __ZNSt3__128__exception_guard_exceptionsINS_29_AllocatorDestroyRangeReverseINS_9allocatorIN2sf6VertexEEEPS4_EEE10__completeB7v160006Ev, symObjAddr: 0x6270, symBinAddr: 0x100024C40, symSize: 0x70 }
  - { offsetInCU: 0xF7CB, offset: 0x63936, size: 0x8, addend: 0x0, symName: __ZNSt3__128__exception_guard_exceptionsINS_29_AllocatorDestroyRangeReverseINS_9allocatorIN2sf6VertexEEEPS4_EEED1B7v160006Ev, symObjAddr: 0x62E0, symBinAddr: 0x100024CB0, symSize: 0x20 }
  - { offsetInCU: 0xF7F5, offset: 0x63960, size: 0x8, addend: 0x0, symName: __ZNSt3__128__exception_guard_exceptionsINS_29_AllocatorDestroyRangeReverseINS_9allocatorIN2sf6VertexEEEPS4_EEEC1B7v160006ES7_, symObjAddr: 0x6300, symBinAddr: 0x100024CD0, symSize: 0x250 }
  - { offsetInCU: 0xF833, offset: 0x6399E, size: 0x8, addend: 0x0, symName: __ZNSt3__128__exception_guard_exceptionsINS_29_AllocatorDestroyRangeReverseINS_9allocatorIN2sf6VertexEEEPS4_EEEC2B7v160006ES7_, symObjAddr: 0x6550, symBinAddr: 0x100024F20, symSize: 0x1E0 }
  - { offsetInCU: 0xF871, offset: 0x639DC, size: 0x8, addend: 0x0, symName: __ZNSt3__129_AllocatorDestroyRangeReverseINS_9allocatorIN2sf6VertexEEEPS3_EC2B7v160006ERS4_RS5_S8_, symObjAddr: 0x6730, symBinAddr: 0x100025100, symSize: 0xF0 }
  - { offsetInCU: 0xF8CB, offset: 0x63A36, size: 0x8, addend: 0x0, symName: __ZNSt3__19allocatorIN2sf6VertexEE9constructB7v160006IS2_JRS2_EEEvPT_DpOT0_, symObjAddr: 0x6820, symBinAddr: 0x1000251F0, symSize: 0x30 }
  - { offsetInCU: 0xF923, offset: 0x63A8E, size: 0x8, addend: 0x0, symName: __ZNSt3__128__exception_guard_exceptionsINS_29_AllocatorDestroyRangeReverseINS_9allocatorIN2sf6VertexEEEPS4_EEED2B7v160006Ev, symObjAddr: 0x6850, symBinAddr: 0x100025220, symSize: 0x80 }
  - { offsetInCU: 0xF94D, offset: 0x63AB8, size: 0x8, addend: 0x0, symName: __ZNKSt3__129_AllocatorDestroyRangeReverseINS_9allocatorIN2sf6VertexEEEPS3_EclB7v160006Ev, symObjAddr: 0x68D0, symBinAddr: 0x1000252A0, symSize: 0x380 }
  - { offsetInCU: 0xF974, offset: 0x63ADF, size: 0x8, addend: 0x0, symName: __ZNSt3__116reverse_iteratorIPN2sf6VertexEEC1B7v160006ES3_, symObjAddr: 0x6F00, symBinAddr: 0x1000258D0, symSize: 0x30 }
  - { offsetInCU: 0xF9AD, offset: 0x63B18, size: 0x8, addend: 0x0, symName: __ZNSt3__116reverse_iteratorIPN2sf6VertexEEppB7v160006Ev, symObjAddr: 0x6FC0, symBinAddr: 0x100025960, symSize: 0x60 }
  - { offsetInCU: 0xF9D3, offset: 0x63B3E, size: 0x8, addend: 0x0, symName: __ZNKSt3__116reverse_iteratorIPN2sf6VertexEE4baseB7v160006Ev, symObjAddr: 0x7020, symBinAddr: 0x1000259C0, symSize: 0x50 }
  - { offsetInCU: 0xF9FE, offset: 0x63B69, size: 0x8, addend: 0x0, symName: __ZNSt3__119__to_address_helperINS_16reverse_iteratorIPN2sf6VertexEEEvE6__callB7v160006ERKS5_, symObjAddr: 0x7080, symBinAddr: 0x100025A10, symSize: 0x50 }
  - { offsetInCU: 0xFA22, offset: 0x63B8D, size: 0x8, addend: 0x0, symName: __ZNKSt3__116reverse_iteratorIPN2sf6VertexEEptB7v160006Ev, symObjAddr: 0x70D0, symBinAddr: 0x100025A60, symSize: 0x20 }
  - { offsetInCU: 0xFA48, offset: 0x63BB3, size: 0x8, addend: 0x0, symName: __ZNKSt3__116reverse_iteratorIPN2sf6VertexEEdeB7v160006Ev, symObjAddr: 0x70F0, symBinAddr: 0x100025A80, symSize: 0x60 }
  - { offsetInCU: 0xFA7C, offset: 0x63BE7, size: 0x8, addend: 0x0, symName: __ZNSt3__116reverse_iteratorIPN2sf6VertexEEC2B7v160006ES3_, symObjAddr: 0x7150, symBinAddr: 0x100025AE0, symSize: 0xA0 }
  - { offsetInCU: 0xFAB5, offset: 0x63C20, size: 0x8, addend: 0x0, symName: __ZNSt3__16vectorIN2sf6VertexENS_9allocatorIS2_EEE21_ConstructTransactionD2B7v160006Ev, symObjAddr: 0x7220, symBinAddr: 0x100025B80, symSize: 0x230 }
  - { offsetInCU: 0xFADF, offset: 0x63C4A, size: 0x8, addend: 0x0, symName: __ZNKSt3__16vectorIN2sf6VertexENS_9allocatorIS2_EEE17__annotate_shrinkB7v160006Em, symObjAddr: 0x7450, symBinAddr: 0x100025DB0, symSize: 0xD0 }
  - { offsetInCU: 0xFB15, offset: 0x63C80, size: 0x8, addend: 0x0, symName: __ZNSt3__16vectorIN2sf6VertexENS_9allocatorIS2_EEE27__invalidate_iterators_pastB7v160006EPS2_, symObjAddr: 0x7520, symBinAddr: 0x100025E80, symSize: 0x10 }
  - { offsetInCU: 0xFB4D, offset: 0x63CB8, size: 0x8, addend: 0x0, symName: __ZNSt3__16vectorIN2sf6VertexENS_9allocatorIS2_EEE5clearB7v160006Ev, symObjAddr: 0x7630, symBinAddr: 0x100025E90, symSize: 0x70 }
  - { offsetInCU: 0xFB83, offset: 0x63CEE, size: 0x8, addend: 0x0, symName: __ZNSt3__16vectorIN2sf6VertexENS_9allocatorIS2_EEE9__end_capB7v160006Ev, symObjAddr: 0x76D0, symBinAddr: 0x100025F00, symSize: 0x20 }
  - { offsetInCU: 0xFBA9, offset: 0x63D14, size: 0x8, addend: 0x0, symName: __ZNSt3__117__compressed_pairIPN2sf6VertexENS_9allocatorIS2_EEE5firstB7v160006Ev, symObjAddr: 0x7830, symBinAddr: 0x100025F20, symSize: 0x20 }
  - { offsetInCU: 0xFBCF, offset: 0x63D3A, size: 0x8, addend: 0x0, symName: __ZNSt3__122__compressed_pair_elemIPN2sf6VertexELi0ELb0EE5__getB7v160006Ev, symObjAddr: 0x7850, symBinAddr: 0x100025F40, symSize: 0x10 }
  - { offsetInCU: 0xFBF5, offset: 0x63D60, size: 0x8, addend: 0x0, symName: __ZNKSt3__16vectorIN2sf6VertexENS_9allocatorIS2_EEE8max_sizeEv, symObjAddr: 0x7860, symBinAddr: 0x100025F50, symSize: 0x280 }
  - { offsetInCU: 0xFC1E, offset: 0x63D89, size: 0x8, addend: 0x0, symName: __ZNKSt3__16vectorIN2sf6VertexENS_9allocatorIS2_EEE20__throw_length_errorB7v160006Ev, symObjAddr: 0x7AE0, symBinAddr: 0x1000261D0, symSize: 0x20 }
  - { offsetInCU: 0xFC44, offset: 0x63DAF, size: 0x8, addend: 0x0, symName: __ZNKSt3__16vectorIN2sf6VertexENS_9allocatorIS2_EEE14__annotate_newB7v160006Em, symObjAddr: 0x7D10, symBinAddr: 0x100026400, symSize: 0xD0 }
  - { offsetInCU: 0xFC84, offset: 0x63DEF, size: 0x8, addend: 0x0, symName: __ZNSt3__116allocator_traitsINS_9allocatorIN2sf6VertexEEEE8max_sizeB7v160006IS4_vEEmRKS4_, symObjAddr: 0x7E10, symBinAddr: 0x100026500, symSize: 0x20 }
  - { offsetInCU: 0xFCB3, offset: 0x63E1E, size: 0x8, addend: 0x0, symName: __ZNKSt3__16vectorIN2sf6VertexENS_9allocatorIS2_EEE7__allocB7v160006Ev, symObjAddr: 0x7E30, symBinAddr: 0x100026520, symSize: 0x20 }
  - { offsetInCU: 0xFCD9, offset: 0x63E44, size: 0x8, addend: 0x0, symName: __ZNSt3__114numeric_limitsIlE3maxB7v160006Ev, symObjAddr: 0x7E50, symBinAddr: 0x100026540, symSize: 0x10 }
  - { offsetInCU: 0xFCED, offset: 0x63E58, size: 0x8, addend: 0x0, symName: __ZNKSt3__19allocatorIN2sf6VertexEE8max_sizeB7v160006Ev, symObjAddr: 0x8070, symBinAddr: 0x1000266C0, symSize: 0x20 }
  - { offsetInCU: 0xFD13, offset: 0x63E7E, size: 0x8, addend: 0x0, symName: __ZNKSt3__117__compressed_pairIPN2sf6VertexENS_9allocatorIS2_EEE6secondB7v160006Ev, symObjAddr: 0x8090, symBinAddr: 0x1000266E0, symSize: 0x20 }
  - { offsetInCU: 0xFD39, offset: 0x63EA4, size: 0x8, addend: 0x0, symName: __ZNKSt3__122__compressed_pair_elemINS_9allocatorIN2sf6VertexEEELi1ELb1EE5__getB7v160006Ev, symObjAddr: 0x80B0, symBinAddr: 0x100026700, symSize: 0x10 }
  - { offsetInCU: 0xFD5F, offset: 0x63ECA, size: 0x8, addend: 0x0, symName: __ZNSt3__123__libcpp_numeric_limitsIlLb1EE3maxB7v160006Ev, symObjAddr: 0x80C0, symBinAddr: 0x100026710, symSize: 0x10 }
  - { offsetInCU: 0xFD73, offset: 0x63EDE, size: 0x8, addend: 0x0, symName: __ZNSt12length_errorC1B7v160006EPKc, symObjAddr: 0x8140, symBinAddr: 0x100026790, symSize: 0x30 }
  - { offsetInCU: 0xFDAC, offset: 0x63F17, size: 0x8, addend: 0x0, symName: __ZNSt12length_errorC2B7v160006EPKc, symObjAddr: 0x8170, symBinAddr: 0x1000267C0, symSize: 0x70 }
  - { offsetInCU: 0xFDE5, offset: 0x63F50, size: 0x8, addend: 0x0, symName: __ZNSt3__19allocatorIN2sf6VertexEE8allocateB7v160006Em, symObjAddr: 0x81E0, symBinAddr: 0x100026830, symSize: 0x80 }
  - { offsetInCU: 0xFE1A, offset: 0x63F85, size: 0x8, addend: 0x0, symName: __ZN2sf6SpriteD2Ev, symObjAddr: 0x8C30, symBinAddr: 0x1000268B0, symSize: 0x50 }
  - { offsetInCU: 0xFE46, offset: 0x63FB1, size: 0x8, addend: 0x0, symName: __ZThn8_N2sf6SpriteD1Ev, symObjAddr: 0x8C80, symBinAddr: 0x100026900, symSize: 0x20 }
  - { offsetInCU: 0x3B, offset: 0x64074, size: 0x8, addend: 0x0, symName: _.str, symObjAddr: 0x3CC0, symBinAddr: 0x10002F020, symSize: 0x0 }
  - { offsetInCU: 0x6B, offset: 0x640A4, size: 0x8, addend: 0x0, symName: _.str.1, symObjAddr: 0x3CE0, symBinAddr: 0x10002F040, symSize: 0x0 }
  - { offsetInCU: 0x88, offset: 0x640C1, size: 0x8, addend: 0x0, symName: _.str.2, symObjAddr: 0x3D20, symBinAddr: 0x10002F080, symSize: 0x0 }
  - { offsetInCU: 0xA5, offset: 0x640DE, size: 0x8, addend: 0x0, symName: _.str.3, symObjAddr: 0x3D60, symBinAddr: 0x10002F0C0, symSize: 0x0 }
  - { offsetInCU: 0xB6, offset: 0x640EF, size: 0x8, addend: 0x0, symName: _.str.4, symObjAddr: 0x3DA0, symBinAddr: 0x10002F100, symSize: 0x0 }
  - { offsetInCU: 0xD3, offset: 0x6410C, size: 0x8, addend: 0x0, symName: _.str.5, symObjAddr: 0x3DE0, symBinAddr: 0x10002F140, symSize: 0x0 }
  - { offsetInCU: 0xF0, offset: 0x64129, size: 0x8, addend: 0x0, symName: _.str.6, symObjAddr: 0x3E20, symBinAddr: 0x10002F180, symSize: 0x0 }
  - { offsetInCU: 0x10D, offset: 0x64146, size: 0x8, addend: 0x0, symName: _.str.7, symObjAddr: 0x3E40, symBinAddr: 0x10002F1A0, symSize: 0x0 }
  - { offsetInCU: 0x11E, offset: 0x64157, size: 0x8, addend: 0x0, symName: _.str.8, symObjAddr: 0x3E60, symBinAddr: 0x10002F1C0, symSize: 0x0 }
  - { offsetInCU: 0x13B, offset: 0x64174, size: 0x8, addend: 0x0, symName: _.str.9, symObjAddr: 0x3E80, symBinAddr: 0x10002F1E0, symSize: 0x0 }
  - { offsetInCU: 0x14C, offset: 0x64185, size: 0x8, addend: 0x0, symName: _.str.10, symObjAddr: 0x3EA0, symBinAddr: 0x10002F200, symSize: 0x0 }
  - { offsetInCU: 0x169, offset: 0x641A2, size: 0x8, addend: 0x0, symName: _.str.11, symObjAddr: 0x3EE0, symBinAddr: 0x10002F240, symSize: 0x0 }
  - { offsetInCU: 0x186, offset: 0x641BF, size: 0x8, addend: 0x0, symName: _.str.12, symObjAddr: 0x3F00, symBinAddr: 0x10002F260, symSize: 0x0 }
  - { offsetInCU: 0x1A3, offset: 0x641DC, size: 0x8, addend: 0x0, symName: _.str.13, symObjAddr: 0x3F20, symBinAddr: 0x10002F280, symSize: 0x0 }
  - { offsetInCU: 0x1B4, offset: 0x641ED, size: 0x8, addend: 0x0, symName: _.str.14, symObjAddr: 0x3F60, symBinAddr: 0x10002F2C0, symSize: 0x0 }
  - { offsetInCU: 0x2A48, offset: 0x66A81, size: 0x8, addend: 0x0, symName: __ZN7OptionsC2Ev, symObjAddr: 0x0, symBinAddr: 0x1000269A0, symSize: 0x780 }
  - { offsetInCU: 0x2A75, offset: 0x66AAE, size: 0x8, addend: 0x0, symName: __ZN7OptionsC1Ev, symObjAddr: 0x7C0, symBinAddr: 0x100027120, symSize: 0x20 }
  - { offsetInCU: 0x2AA1, offset: 0x66ADA, size: 0x8, addend: 0x0, symName: __ZN7OptionsD2Ev, symObjAddr: 0x7E0, symBinAddr: 0x100027140, symSize: 0x1F0 }
  - { offsetInCU: 0x2ACD, offset: 0x66B06, size: 0x8, addend: 0x0, symName: __ZN7OptionsD1Ev, symObjAddr: 0x9D0, symBinAddr: 0x100027330, symSize: 0x20 }
  - { offsetInCU: 0x2AF9, offset: 0x66B32, size: 0x8, addend: 0x0, symName: __ZN7OptionsD0Ev, symObjAddr: 0x9F0, symBinAddr: 0x100027350, symSize: 0x50 }
  - { offsetInCU: 0x2B25, offset: 0x66B5E, size: 0x8, addend: 0x0, symName: __ZN7Options10reset_quitEv, symObjAddr: 0xA40, symBinAddr: 0x1000273A0, symSize: 0x70 }
  - { offsetInCU: 0x2B4D, offset: 0x66B86, size: 0x8, addend: 0x0, symName: __ZN7Options11return_quitEv, symObjAddr: 0xAB0, symBinAddr: 0x100027410, symSize: 0x70 }
  - { offsetInCU: 0x2B75, offset: 0x66BAE, size: 0x8, addend: 0x0, symName: __ZN7Options6updateEN2sf7Vector2IfEE, symObjAddr: 0xB20, symBinAddr: 0x100027480, symSize: 0xDE0 }
  - { offsetInCU: 0x2BB1, offset: 0x66BEA, size: 0x8, addend: 0x0, symName: __ZN7Options14render_optionsEPN2sf12RenderTargetE, symObjAddr: 0x1A10, symBinAddr: 0x100028260, symSize: 0x1D0 }
  - { offsetInCU: 0xD787, offset: 0x743AC, size: 0x8, addend: 0x0, symName: __ZN8BasementC2EPN2sf12RenderWindowE, symObjAddr: 0x0, symBinAddr: 0x1000284B0, symSize: 0x8E0 }
  - { offsetInCU: 0xD7C4, offset: 0x743E9, size: 0x8, addend: 0x0, symName: __ZN8BasementC1EPN2sf12RenderWindowE, symObjAddr: 0x940, symBinAddr: 0x100028D90, symSize: 0x30 }
  - { offsetInCU: 0xD7FF, offset: 0x74424, size: 0x8, addend: 0x0, symName: __ZN8BasementD2Ev, symObjAddr: 0x970, symBinAddr: 0x100028DC0, symSize: 0x1D0 }
  - { offsetInCU: 0xD82B, offset: 0x74450, size: 0x8, addend: 0x0, symName: __ZN8BasementD1Ev, symObjAddr: 0xB40, symBinAddr: 0x100028F90, symSize: 0x20 }
  - { offsetInCU: 0xD857, offset: 0x7447C, size: 0x8, addend: 0x0, symName: __ZN8BasementD0Ev, symObjAddr: 0xB60, symBinAddr: 0x100028FB0, symSize: 0x50 }
  - { offsetInCU: 0xD883, offset: 0x744A8, size: 0x8, addend: 0x0, symName: __ZN8Basement8endStateEv, symObjAddr: 0xBB0, symBinAddr: 0x100029000, symSize: 0x70 }
  - { offsetInCU: 0xD8AB, offset: 0x744D0, size: 0x8, addend: 0x0, symName: __ZN8Basement6updateERKfPN2sf12RenderWindowE, symObjAddr: 0xC20, symBinAddr: 0x100029070, symSize: 0x30 }
  - { offsetInCU: 0xD8F1, offset: 0x74516, size: 0x8, addend: 0x0, symName: __ZN8Basement6renderEPN2sf12RenderTargetE, symObjAddr: 0xC50, symBinAddr: 0x1000290A0, symSize: 0x40 }
  - { offsetInCU: 0x3B, offset: 0x7458D, size: 0x8, addend: 0x0, symName: _.str, symObjAddr: 0xA380, symBinAddr: 0x10002F360, symSize: 0x0 }
  - { offsetInCU: 0x6B, offset: 0x745BD, size: 0x8, addend: 0x0, symName: _.str.1, symObjAddr: 0xA3A0, symBinAddr: 0x10002F380, symSize: 0x0 }
  - { offsetInCU: 0x88, offset: 0x745DA, size: 0x8, addend: 0x0, symName: _.str.2, symObjAddr: 0xA3E0, symBinAddr: 0x10002F3C0, symSize: 0x0 }
  - { offsetInCU: 0xA5, offset: 0x745F7, size: 0x8, addend: 0x0, symName: _.str.3, symObjAddr: 0xA400, symBinAddr: 0x10002F3E0, symSize: 0x0 }
  - { offsetInCU: 0xC2, offset: 0x74614, size: 0x8, addend: 0x0, symName: _.str.4, symObjAddr: 0xA420, symBinAddr: 0x10002F400, symSize: 0x0 }
  - { offsetInCU: 0xDF, offset: 0x74631, size: 0x8, addend: 0x0, symName: _.str.5, symObjAddr: 0xA440, symBinAddr: 0x10002F420, symSize: 0x0 }
  - { offsetInCU: 0xFC, offset: 0x7464E, size: 0x8, addend: 0x0, symName: _.str.6, symObjAddr: 0xA480, symBinAddr: 0x10002F460, symSize: 0x0 }
  - { offsetInCU: 0x119, offset: 0x7466B, size: 0x8, addend: 0x0, symName: _.str.7, symObjAddr: 0xA4A0, symBinAddr: 0x10002F480, symSize: 0x0 }
  - { offsetInCU: 0x136, offset: 0x74688, size: 0x8, addend: 0x0, symName: _.str.8, symObjAddr: 0xA4E0, symBinAddr: 0x10002F4C0, symSize: 0x0 }
  - { offsetInCU: 0x153, offset: 0x746A5, size: 0x8, addend: 0x0, symName: _.str.9, symObjAddr: 0xA540, symBinAddr: 0x10002F520, symSize: 0x0 }
  - { offsetInCU: 0x171, offset: 0x746C3, size: 0x8, addend: 0x0, symName: _.str.10, symObjAddr: 0xA5A0, symBinAddr: 0x10002F580, symSize: 0x0 }
  - { offsetInCU: 0xDF08, offset: 0x8245A, size: 0x8, addend: 0x0, symName: __ZN8MainMenuC2EPN2sf12RenderWindowE, symObjAddr: 0x0, symBinAddr: 0x100029160, symSize: 0x10A0 }
  - { offsetInCU: 0xDF54, offset: 0x824A6, size: 0x8, addend: 0x0, symName: __ZN6ButtonaSERKS_, symObjAddr: 0x1110, symBinAddr: 0x10002A200, symSize: 0x190 }
  - { offsetInCU: 0xDF85, offset: 0x824D7, size: 0x8, addend: 0x0, symName: __ZN8MainMenuC1EPN2sf12RenderWindowE, symObjAddr: 0x12C0, symBinAddr: 0x10002A390, symSize: 0x30 }
  - { offsetInCU: 0xDFC0, offset: 0x82512, size: 0x8, addend: 0x0, symName: __ZN8MainMenuD2Ev, symObjAddr: 0x12F0, symBinAddr: 0x10002A3C0, symSize: 0x170 }
  - { offsetInCU: 0xDFEC, offset: 0x8253E, size: 0x8, addend: 0x0, symName: __ZN8MainMenuD1Ev, symObjAddr: 0x1460, symBinAddr: 0x10002A530, symSize: 0x20 }
  - { offsetInCU: 0xE018, offset: 0x8256A, size: 0x8, addend: 0x0, symName: __ZN8MainMenuD0Ev, symObjAddr: 0x1480, symBinAddr: 0x10002A550, symSize: 0x50 }
  - { offsetInCU: 0xE044, offset: 0x82596, size: 0x8, addend: 0x0, symName: __ZN8MainMenu8endStateEv, symObjAddr: 0x14D0, symBinAddr: 0x10002A5A0, symSize: 0x40 }
  - { offsetInCU: 0xE06C, offset: 0x825BE, size: 0x8, addend: 0x0, symName: __ZN8MainMenu6updateERKfPN2sf12RenderWindowE, symObjAddr: 0x1550, symBinAddr: 0x10002A5E0, symSize: 0x6B0 }
  - { offsetInCU: 0xE0B5, offset: 0x82607, size: 0x8, addend: 0x0, symName: __ZN8MainMenu6renderEPN2sf12RenderTargetE, symObjAddr: 0x1CD0, symBinAddr: 0x10002AC90, symSize: 0x100 }
  - { offsetInCU: 0xE0F6, offset: 0x82648, size: 0x8, addend: 0x0, symName: __ZN2sf14RectangleShapeaSERKS0_, symObjAddr: 0x1DD0, symBinAddr: 0x10002AD90, symSize: 0x50 }
  - { offsetInCU: 0xE136, offset: 0x82688, size: 0x8, addend: 0x0, symName: __ZN2sf5ShapeaSERKS0_, symObjAddr: 0x1F20, symBinAddr: 0x10002ADE0, symSize: 0xC0 }
  - { offsetInCU: 0x3B, offset: 0x8272A, size: 0x8, addend: 0x0, symName: _.str, symObjAddr: 0x29C0, symBinAddr: 0x10002F5A0, symSize: 0x0 }
  - { offsetInCU: 0x6B, offset: 0x8275A, size: 0x8, addend: 0x0, symName: _.str.1, symObjAddr: 0x29E0, symBinAddr: 0x10002F5C0, symSize: 0x0 }
  - { offsetInCU: 0x88, offset: 0x82777, size: 0x8, addend: 0x0, symName: _.str.2, symObjAddr: 0x2A20, symBinAddr: 0x10002F600, symSize: 0x0 }
  - { offsetInCU: 0xA5, offset: 0x82794, size: 0x8, addend: 0x0, symName: _.str.3, symObjAddr: 0x2A60, symBinAddr: 0x10002F640, symSize: 0x0 }
  - { offsetInCU: 0x2939, offset: 0x85028, size: 0x8, addend: 0x0, symName: __ZN5GuideC2Ev, symObjAddr: 0x0, symBinAddr: 0x10002AF20, symSize: 0x2D0 }
  - { offsetInCU: 0x2966, offset: 0x85055, size: 0x8, addend: 0x0, symName: __ZN5GuideC1Ev, symObjAddr: 0x420, symBinAddr: 0x10002B1F0, symSize: 0x20 }
  - { offsetInCU: 0x2992, offset: 0x85081, size: 0x8, addend: 0x0, symName: __ZN5GuideD2Ev, symObjAddr: 0x440, symBinAddr: 0x10002B210, symSize: 0x20 }
  - { offsetInCU: 0x29BE, offset: 0x850AD, size: 0x8, addend: 0x0, symName: __ZN5GuideD1Ev, symObjAddr: 0x460, symBinAddr: 0x10002B230, symSize: 0x20 }
  - { offsetInCU: 0x29EA, offset: 0x850D9, size: 0x8, addend: 0x0, symName: __ZN5GuideD0Ev, symObjAddr: 0x480, symBinAddr: 0x10002B250, symSize: 0x50 }
  - { offsetInCU: 0x2A16, offset: 0x85105, size: 0x8, addend: 0x0, symName: __ZN5Guide10reset_quitEv, symObjAddr: 0x4D0, symBinAddr: 0x10002B2A0, symSize: 0x70 }
  - { offsetInCU: 0x2A3E, offset: 0x8512D, size: 0x8, addend: 0x0, symName: __ZN5Guide11return_quitEv, symObjAddr: 0x540, symBinAddr: 0x10002B310, symSize: 0x70 }
  - { offsetInCU: 0x2A66, offset: 0x85155, size: 0x8, addend: 0x0, symName: __ZN5Guide6updateEN2sf7Vector2IfEE, symObjAddr: 0x5B0, symBinAddr: 0x10002B380, symSize: 0x2E0 }
  - { offsetInCU: 0x2AA2, offset: 0x85191, size: 0x8, addend: 0x0, symName: __ZN5Guide12render_guideEPN2sf12RenderTargetE, symObjAddr: 0x890, symBinAddr: 0x10002B660, symSize: 0x110 }
...
